 MFCD42D

 Timestamp is 345e9a4c (Mon Nov 03 19:45:16 1997)

 Preferred load address is 5f700000

 Start         Length     Name                   Class
 0001:00000000 00028fd2H .text                   CODE
 0001:00028fe0 0000047aH .text$AFX_INIT          CODE
 0001:00029460 00000523H .text$AFX_VDEL          CODE
 0001:00029990 00001820H .text$x                 CODE
 0002:00000000 000004d8H .idata$5                DATA
 0002:000004d8 000072f8H .rdata                  DATA
 0002:000077d0 000007acH .rdata$r                DATA
 0002:00007f80 00002fb8H .xdata$x                DATA
 0002:0000af38 00000064H .idata$2                DATA
 0002:0000af9c 00000014H .idata$3                DATA
 0002:0000afb0 000004d8H .idata$4                DATA
 0002:0000b488 000002beH .idata$6                DATA
 0002:0000b750 00000b98H .edata                  DATA
 0003:00000000 00000004H .CRT$XCA                DATA
 0003:00000004 00000004H .CRT$XCL                DATA
 0003:00000008 00000008H .CRT$XCU                DATA
 0003:00000010 00000004H .CRT$XCZ                DATA
 0003:00000014 00000004H .CRT$XIA                DATA
 0003:00000018 00000004H .CRT$XIZ                DATA
 0003:00000020 000005b8H .data                   DATA
 0003:000005d8 0000005cH .bss                    DATA
 0004:00000000 00000100H .rsrc$01                DATA
 0004:00000100 00001018H .rsrc$02                DATA

  Address         Publics by Value              Rva+Base     Lib:Object

 0001:00000000       ?GetHead@CSimpleList@@QBEPAXXZ 5f701000 f i dlldb.obj
 0001:00000010       ?AfxThunkSQLAllocConnect@@YGFPAXPAPAX@Z 5f701010 f   dbcore.obj
 0001:0000014a       ?AfxThunkSQLAllocEnv@@YGFPAPAX@Z 5f70114a f   dbcore.obj
 0001:0000016a       ?AfxThunkSQLAllocStmt@@YGFPAXPAPAX@Z 5f70116a f   dbcore.obj
 0001:0000018e       ?AfxThunkSQLBindCol@@YGFPAXGF0JPAJ@Z 5f70118e f   dbcore.obj
 0001:000001c4       ?AfxThunkSQLCancel@@YGFPAX@Z 5f7011c4 f   dbcore.obj
 0001:000001e4       ?AfxThunkSQLDescribeCol@@YGFPAXGPAEFPAF2PAK22@Z 5f7011e4 f   dbcore.obj
 0001:00000226       ?AfxThunkSQLDisconnect@@YGFPAX@Z 5f701226 f   dbcore.obj
 0001:00000246       ?AfxThunkSQLDriverConnect@@YGFPAXPAUHWND__@@PAEF2FPAFG@Z 5f701246 f   dbcore.obj
 0001:00000285       ?AfxThunkSQLError@@YGFPAX00PAEPAJ1FPAF@Z 5f701285 f   dbcore.obj
 0001:000002c2       ?AfxThunkSQLExecDirect@@YGFPAXPAEJ@Z 5f7012c2 f   dbcore.obj
 0001:000002ea       ?AfxThunkSQLExecute@@YGFPAX@Z 5f7012ea f   dbcore.obj
 0001:0000030a       ?AfxThunkSQLExtendedFetch@@YGFPAXGJPAKPAG@Z 5f70130a f   dbcore.obj
 0001:0000033b       ?AfxThunkSQLFetch@@YGFPAX@Z 5f70133b f   dbcore.obj
 0001:0000035b       ?AfxThunkSQLFreeConnect@@YGFPAX@Z 5f70135b f   dbcore.obj
 0001:0000037b       ?AfxThunkSQLFreeEnv@@YGFPAX@Z 5f70137b f   dbcore.obj
 0001:0000039b       ?AfxThunkSQLFreeStmt@@YGFPAXG@Z 5f70139b f   dbcore.obj
 0001:000003c0       ?AfxThunkSQLGetCursorName@@YGFPAXPAEFPAF@Z 5f7013c0 f   dbcore.obj
 0001:000003ed       ?AfxThunkSQLGetData@@YGFPAXGF0JPAJ@Z 5f7013ed f   dbcore.obj
 0001:00000423       ?AfxThunkSQLGetFunctions@@YGFPAXGPAG@Z 5f701423 f   dbcore.obj
 0001:0000044c       ?AfxThunkSQLGetInfo@@YGFPAXG0FPAF@Z 5f70144c f   dbcore.obj
 0001:0000047e       ?AfxThunkSQLMoreResults@@YGFPAX@Z 5f70147e f   dbcore.obj
 0001:0000049e       ?AfxThunkSQLNumResultCols@@YGFPAXPAF@Z 5f70149e f   dbcore.obj
 0001:000004c2       ?AfxThunkSQLParamData@@YGFPAXPAPAX@Z 5f7014c2 f   dbcore.obj
 0001:000004e6       ?AfxThunkSQLPrepare@@YGFPAXPAEJ@Z 5f7014e6 f   dbcore.obj
 0001:0000050e       ?AfxThunkSQLPutData@@YGFPAX0J@Z 5f70150e f   dbcore.obj
 0001:00000536       ?AfxThunkSQLRowCount@@YGFPAXPAJ@Z 5f701536 f   dbcore.obj
 0001:0000055a       ?AfxThunkSQLSetConnectOption@@YGFPAXGK@Z 5f70155a f   dbcore.obj
 0001:00000583       ?AfxThunkSQLSetPos@@YGFPAXGGG@Z 5f701583 f   dbcore.obj
 0001:000005b2       ?AfxThunkSQLSetStmtOption@@YGFPAXGK@Z 5f7015b2 f   dbcore.obj
 0001:000005db       ?AfxThunkSQLTransact@@YGFPAX0G@Z 5f7015db f   dbcore.obj
 0001:00000604       ?AfxThunkSQLBindParameter@@YGFPAXGFFFKF0JPAJ@Z 5f701604 f   dbcore.obj
 0001:0000064d       ?AfxThunkSQLNumParams@@YGFPAXPAF@Z 5f70164d f   dbcore.obj
 0001:00000671       ?AfxThunkSQLGetStmtOption@@YGFPAXG0@Z 5f701671 f   dbcore.obj
 0001:0000069a       ??1_AFX_DB_STATE@@UAE@XZ   5f70169a f   dbcore.obj
 0001:000006f9       ?AfxThrowDBException@@YGXFPAVCDatabase@@PAX@Z 5f7016f9 f   dbcore.obj
 0001:000007dd       ??0CDBException@@QAE@F@Z   5f7017dd f   dbcore.obj
 0001:00000850       ??1CDBException@@UAE@XZ    5f701850 f   dbcore.obj
 0001:000008b3       ?BuildErrorString@CDBException@@UAEXPAVCDatabase@@PAXH@Z 5f7018b3 f   dbcore.obj
 0001:00000c8c       ?GetErrorMessage@CDBException@@UAEHPADIPAI@Z 5f701c8c f   dbcore.obj
 0001:00000d0b       ?TraceErrorMessage@CDBException@@QBEXPBD@Z 5f701d0b f   dbcore.obj
 0001:00000e18       ?Empty@CDBException@@QAEXXZ 5f701e18 f   dbcore.obj
 0001:00000e39       ??0CDatabase@@QAE@XZ       5f701e39 f   dbcore.obj
 0001:00000f05       ??1CDatabase@@UAE@XZ       5f701f05 f   dbcore.obj
 0001:00000f87       ?Open@CDatabase@@UAEHPBDHH0H@Z 5f701f87 f   dbcore.obj
 0001:00001166       ?OpenEx@CDatabase@@UAEHPBDK@Z 5f702166 f   dbcore.obj
 0001:000012db       ?ExecuteSQL@CDatabase@@QAEXPBD@Z 5f7022db f   dbcore.obj
 0001:0000151f       ?Cancel@CDatabase@@QAEXXZ  5f70251f f   dbcore.obj
 0001:00001573       ?Close@CDatabase@@UAEXXZ   5f702573 f   dbcore.obj
 0001:000016e5       ?Free@CDatabase@@IAEXXZ    5f7026e5 f   dbcore.obj
 0001:00001820       ?OnSetOptions@CDatabase@@UAEXPAX@Z 5f702820 f   dbcore.obj
 0001:000018af       ?GetDatabaseName@CDatabase@@QBE?AVCString@@XZ 5f7028af f   dbcore.obj
 0001:00001954       ?BeginTrans@CDatabase@@QAEHXZ 5f702954 f   dbcore.obj
 0001:00001a02       ?CommitTrans@CDatabase@@QAEHXZ 5f702a02 f   dbcore.obj
 0001:00001ae6       ?Rollback@CDatabase@@QAEHXZ 5f702ae6 f   dbcore.obj
 0001:00001bca       ?Check@CDatabase@@UBEHF@Z  5f702bca f   dbcore.obj
 0001:00001be7       ?CheckHstmt@CDatabase@@QBGHFPAX@Z 5f702be7 f   dbcore.obj
 0001:00001c9f       ?ReplaceBrackets@CDatabase@@QAEXPAD@Z 5f702c9f f   dbcore.obj
 0001:00001df4       ?AllocConnect@CDatabase@@IAEXK@Z 5f702df4 f   dbcore.obj
 0001:00002027       ?Connect@CDatabase@@IAEHK@Z 5f703027 f   dbcore.obj
 0001:00002192       ?VerifyConnect@CDatabase@@IAEXXZ 5f703192 f   dbcore.obj
 0001:0000225e       ?GetConnectInfo@CDatabase@@IAEXXZ 5f70325e f   dbcore.obj
 0001:0000268f       ?BindParameters@CDatabase@@UAEXPAX@Z 5f70368f f   dbcore.obj
 0001:0000269c       ?AssertValid@CDatabase@@UBEXXZ 5f70369c f   dbcore.obj
 0001:000026af       ?Dump@CDatabase@@UBEXAAVCDumpContext@@@Z 5f7036af f   dbcore.obj
 0001:000027ef       ??0CRecordset@@QAE@PAVCDatabase@@@Z 5f7037ef f   dbcore.obj
 0001:00002c3f       ??1CRecordset@@UAE@XZ      5f703c3f f   dbcore.obj
 0001:00002e6b       ?Open@CRecordset@@UAEHIPBDK@Z 5f703e6b f   dbcore.obj
 0001:00003142       ?Close@CRecordset@@UAEXXZ  5f704142 f   dbcore.obj
 0001:00003540       ?IsOpen@CRecordset@@QBEHXZ 5f704540 f   dbcore.obj
 0001:00003684       ?IsFieldDirty@CRecordset@@QAEHPAX@Z 5f704684 f   dbcore.obj
 0001:000037ce       ?IsFieldNull@CRecordset@@QAEHPAX@Z 5f7047ce f   dbcore.obj
 0001:00003856       ?IsFieldNullable@CRecordset@@QAEHPAX@Z 5f704856 f   dbcore.obj
 0001:000038e1       ?CanBookmark@CRecordset@@QBEHXZ 5f7048e1 f   dbcore.obj
 0001:0000396c       ?Move@CRecordset@@UAEXJG@Z 5f70496c f   dbcore.obj
 0001:00003b05       ?CheckRowsetError@CRecordset@@UAEXF@Z 5f704b05 f   dbcore.obj
 0001:00003c91       ?GetBookmark@CRecordset@@QAEXAAVCDBVariant@@@Z 5f704c91 f   dbcore.obj
 0001:00003d7d       ?SetBookmark@CRecordset@@QAEXABVCDBVariant@@@Z 5f704d7d f   dbcore.obj
 0001:00003e1c       ?SetRowsetSize@CRecordset@@UAEXK@Z 5f704e1c f   dbcore.obj
 0001:00003fa4       ?AddNew@CRecordset@@UAEXXZ 5f704fa4 f   dbcore.obj
 0001:000040be       ?Edit@CRecordset@@UAEXXZ   5f7050be f   dbcore.obj
 0001:00004289       ?Update@CRecordset@@UAEHXZ 5f705289 f   dbcore.obj
 0001:0000434b       ?Delete@CRecordset@@UAEXXZ 5f70534b f   dbcore.obj
 0001:000043ff       ?CancelUpdate@CRecordset@@QAEXXZ 5f7053ff f   dbcore.obj
 0001:0000447e       ?FlushResultSet@CRecordset@@QBEHXZ 5f70547e f   dbcore.obj
 0001:000044f7       ?GetODBCFieldInfo@CRecordset@@QAEXPBDAAUCODBCFieldInfo@@@Z 5f7054f7 f   dbcore.obj
 0001:000045ba       ?GetODBCFieldInfo@CRecordset@@QAEXFAAUCODBCFieldInfo@@@Z 5f7055ba f   dbcore.obj
 0001:00004690       ?GetFieldValue@CRecordset@@QAEXPBDAAVCDBVariant@@F@Z 5f705690 f   dbcore.obj
 0001:00004760       ?GetFieldValue@CRecordset@@QAEXFAAVCDBVariant@@F@Z 5f705760 f   dbcore.obj
 0001:00004980       ?GetFieldValue@CRecordset@@QAEXPBDAAVCString@@@Z 5f705980 f   dbcore.obj
 0001:00004a43       ?GetFieldValue@CRecordset@@QAEXFAAVCString@@@Z 5f705a43 f   dbcore.obj
 0001:00004bd3       ?SetFieldDirty@CRecordset@@QAEXPAXH@Z 5f705bd3 f   dbcore.obj
 0001:00004c8c       ?SetFieldNull@CRecordset@@QAEXPAXH@Z 5f705c8c f   dbcore.obj
 0001:00004dbf       ?SetParamNull@CRecordset@@QAEXHH@Z 5f705dbf f   dbcore.obj
 0001:00004e3e       ?SetLockingMode@CRecordset@@QAEXI@Z 5f705e3e f   dbcore.obj
 0001:00004eb5       ?Requery@CRecordset@@UAEHXZ 5f705eb5 f   dbcore.obj
 0001:00005127       ?Cancel@CRecordset@@QAEXXZ 5f706127 f   dbcore.obj
 0001:00005197       ?GetDefaultConnect@CRecordset@@UAE?AVCString@@XZ 5f706197 f   dbcore.obj
 0001:000051d9       ?GetDefaultSQL@CRecordset@@UAE?AVCString@@XZ 5f7061d9 f   dbcore.obj
 0001:0000521b       ?DoFieldExchange@CRecordset@@UAEXPAVCFieldExchange@@@Z 5f70621b f   dbcore.obj
 0001:0000523b       ?DoBulkFieldExchange@CRecordset@@UAEXPAVCFieldExchange@@@Z 5f70623b f   dbcore.obj
 0001:00005284       ?OnSetOptions@CRecordset@@UAEXPAX@Z 5f706284 f   dbcore.obj
 0001:00005340       ?Check@CRecordset@@UBEHF@Z 5f706340 f   dbcore.obj
 0001:0000547a       ?PreBindFields@CRecordset@@UAEXXZ 5f70647a f   dbcore.obj
 0001:00005485       ?SetState@CRecordset@@IAEXHPBDK@Z 5f706485 f   dbcore.obj
 0001:000055d4       ?AllocHstmt@CRecordset@@IAEHXZ 5f7065d4 f   dbcore.obj
 0001:0000599d       ?BuildSQL@CRecordset@@IAEXPBD@Z 5f70699d f   dbcore.obj
 0001:00005b19       ?PrepareAndExecute@CRecordset@@IAEXXZ 5f706b19 f   dbcore.obj
 0001:00005e8d       ?VerifyDriverBehavior@CRecordset@@IAEXXZ 5f706e8d f   dbcore.obj
 0001:00005fe7       ?VerifyCursorSupport@CRecordset@@IAEKXZ 5f706fe7 f   dbcore.obj
 0001:000060e1       ?AllocAndCacheFieldInfo@CRecordset@@IAEXXZ 5f7070e1 f   dbcore.obj
 0001:0000635d       ?AllocRowset@CRecordset@@IAEXXZ 5f70735d f   dbcore.obj
 0001:000063b9       ?FreeRowset@CRecordset@@IAEXXZ 5f7073b9 f   dbcore.obj
 0001:00006443       ?EnableBookmarks@CRecordset@@IAEXXZ 5f707443 f   dbcore.obj
 0001:000064c5       ?SetUpdateMethod@CRecordset@@IAEXXZ 5f7074c5 f   dbcore.obj
 0001:00006515       ?SetConcurrencyAndCursorType@CRecordset@@IAEXPAXK@Z 5f707515 f   dbcore.obj
 0001:00006713       ?IsSQLUpdatable@CRecordset@@QAEHPBD@Z 5f707713 f   dbcore.obj
 0001:00006778       ?IsSelectQueryUpdatable@CRecordset@@QAEHPBD@Z 5f707778 f   dbcore.obj
 0001:00006a14       ?IsJoin@CRecordset@@SGHPBD@Z 5f707a14 f   dbcore.obj
 0001:00006a4f       ?FindSQLToken@CRecordset@@SGPBDPBD0@Z 5f707a4f f   dbcore.obj
 0001:00006c81       ?InitRecord@CRecordset@@QAEXXZ 5f707c81 f   dbcore.obj
 0001:00006d00       ?ResetCursor@CRecordset@@QAEXXZ 5f707d00 f   dbcore.obj
 0001:00006d59       ?CheckRowsetCurrencyStatus@CRecordset@@QAEXGJ@Z 5f707d59 f   dbcore.obj
 0001:00006e95       ?FetchData@CRecordset@@QAEFGJPAK@Z 5f707e95 f   dbcore.obj
 0001:00006f84       ?SkipDeletedRecords@CRecordset@@QAEXGJPAKPAF@Z 5f707f84 f   dbcore.obj
 0001:00007191       ?SetRowsetCurrencyStatus@CRecordset@@UAEXFGJK@Z 5f708191 f   dbcore.obj
 0001:000074bb       ?RefreshRowset@CRecordset@@QAEXGG@Z 5f7084bb f   dbcore.obj
 0001:0000757f       ?SetRowsetCursorPosition@CRecordset@@QAEXGG@Z 5f70857f f   dbcore.obj
 0001:0000760a       ?BuildSelectSQL@CRecordset@@IAEXXZ 5f70860a f   dbcore.obj
 0001:00007852       ?AppendFilterAndSortSQL@CRecordset@@IAEXXZ 5f708852 f   dbcore.obj
 0001:000078cb       ?IsRecordsetUpdatable@CRecordset@@IAEHXZ 5f7088cb f   dbcore.obj
 0001:000079a4       ?ExecuteSetPosUpdate@CRecordset@@IAEXXZ 5f7089a4 f   dbcore.obj
 0001:00007ab1       ?PrepareUpdateHstmt@CRecordset@@IAEXXZ 5f708ab1 f   dbcore.obj
 0001:00007c46       ?BuildUpdateSQL@CRecordset@@IAEXXZ 5f708c46 f   dbcore.obj
 0001:00008027       ?ExecuteUpdateSQL@CRecordset@@IAEXXZ 5f709027 f   dbcore.obj
 0001:000081b2       ?SendLongBinaryData@CRecordset@@IAEXPAX@Z 5f7091b2 f   dbcore.obj
 0001:000083c3       ?AllocStatusArrays@CRecordset@@QAEXXZ 5f7093c3 f   dbcore.obj
 0001:00008590       ?GetBoundFieldIndex@CRecordset@@QAEHPAX@Z 5f709590 f   dbcore.obj
 0001:000085be       ?GetBoundParamIndex@CRecordset@@QAEHPAX@Z 5f7095be f   dbcore.obj
 0001:000085ec       ?GetFieldIndexByName@CRecordset@@QAEFPBD@Z 5f7095ec f   dbcore.obj
 0001:00008673       ?GetFieldLengthBuffer@CRecordset@@QAEPAJKH@Z 5f709673 f   dbcore.obj
 0001:000086f7       ?GetFieldStatus@CRecordset@@QAEEK@Z 5f7096f7 f   dbcore.obj
 0001:0000873e       ?SetFieldStatus@CRecordset@@QAEXKE@Z 5f70973e f   dbcore.obj
 0001:00008797       ?ClearFieldStatus@CRecordset@@QAEXXZ 5f709797 f   dbcore.obj
 0001:000087bd       ?IsFieldStatusDirty@CRecordset@@QBEHK@Z 5f7097bd f   dbcore.obj
 0001:00008809       ?SetDirtyFieldStatus@CRecordset@@QAEXK@Z 5f709809 f   dbcore.obj
 0001:00008861       ?ClearDirtyFieldStatus@CRecordset@@QAEXK@Z 5f709861 f   dbcore.obj
 0001:000088b9       ?IsFieldStatusNull@CRecordset@@QBEHK@Z 5f7098b9 f   dbcore.obj
 0001:00008905       ?SetNullFieldStatus@CRecordset@@QAEXK@Z 5f709905 f   dbcore.obj
 0001:0000895d       ?ClearNullFieldStatus@CRecordset@@QAEXK@Z 5f70995d f   dbcore.obj
 0001:000089b5       ?IsParamStatusNull@CRecordset@@QBEHK@Z 5f7099b5 f   dbcore.obj
 0001:00008a01       ?SetNullParamStatus@CRecordset@@QAEXK@Z 5f709a01 f   dbcore.obj
 0001:00008a59       ?ClearNullParamStatus@CRecordset@@QAEXK@Z 5f709a59 f   dbcore.obj
 0001:00008ab1       ?IsFieldNullable@CRecordset@@QBEHK@Z 5f709ab1 f   dbcore.obj
 0001:00008b28       ?BindParams@CRecordset@@QAEIPAX@Z 5f709b28 f   dbcore.obj
 0001:00008b9b       ?RebindParams@CRecordset@@QAEXPAX@Z 5f709b9b f   dbcore.obj
 0001:00008c14       ?BindFieldsToColumns@CRecordset@@QAEIXZ 5f709c14 f   dbcore.obj
 0001:00008cfd       ?BindFieldsForUpdate@CRecordset@@QAEXXZ 5f709cfd f   dbcore.obj
 0001:00008d5d       ?UnbindFieldsForUpdate@CRecordset@@QAEXXZ 5f709d5d f   dbcore.obj
 0001:00008dbd       ?Fixups@CRecordset@@QAEXXZ 5f709dbd f   dbcore.obj
 0001:00008e54       ?AppendNames@CRecordset@@QAEIPAVCString@@PBD@Z 5f709e54 f   dbcore.obj
 0001:00008f42       ?AppendNamesValues@CRecordset@@QAEIPAXPAVCString@@PBD@Z 5f709f42 f   dbcore.obj
 0001:00009035       ?AppendValues@CRecordset@@QAEIPAXPAVCString@@PBD@Z 5f70a035 f   dbcore.obj
 0001:00009128       ?StoreFields@CRecordset@@QAEXXZ 5f70a128 f   dbcore.obj
 0001:00009193       ?LoadFields@CRecordset@@QAEXXZ 5f70a193 f   dbcore.obj
 0001:00009206       ?MarkForUpdate@CRecordset@@QAEXXZ 5f70a206 f   dbcore.obj
 0001:00009245       ?MarkForAddNew@CRecordset@@QAEXXZ 5f70a245 f   dbcore.obj
 0001:00009284       ?AllocDataCache@CRecordset@@QAEXXZ 5f70a284 f   dbcore.obj
 0001:000092c3       ?FreeDataCache@CRecordset@@QAEXXZ 5f70a2c3 f   dbcore.obj
 0001:00009476       ?DumpFields@CRecordset@@QBEXAAVCDumpContext@@@Z 5f70a476 f   dbcore.obj
 0001:000094aa       ?UpdateInsertDelete@CRecordset@@IAEHXZ 5f70a4aa f   dbcore.obj
 0001:00009841       ?GetLBFetchSize@CRecordset@@MAEJJ@Z 5f70a841 f   dbcore.obj
 0001:00009853       ?GetLBReallocSize@CRecordset@@MAEJJ@Z 5f70a853 f   dbcore.obj
 0001:00009865       ?GetDefaultFieldType@CRecordset@@SGFF@Z 5f70a865 f   dbcore.obj
 0001:00009956       ?GetDataBuffer@CRecordset@@SGPAXAAVCDBVariant@@FPAHFK@Z 5f70a956 f   dbcore.obj
 0001:00009c39       ?GetTextLen@CRecordset@@SGHFK@Z 5f70ac39 f   dbcore.obj
 0001:00009cab       ?GetData@CRecordset@@SGJPAVCDatabase@@PAXFF1HF@Z 5f70acab f   dbcore.obj
 0001:00009e46       ?GetLongCharDataAndCleanup@CRecordset@@SGXPAVCDatabase@@PAXFJPAPAXHAAVCString@@F@Z 5f70ae46 f   dbcore.obj
 0001:00009fb9       ?GetLongBinaryDataAndCleanup@CRecordset@@SGXPAVCDatabase@@PAXFJPAPAXHAAVCDBVariant@@F@Z 5f70afb9 f   dbcore.obj
 0001:0000a182       ?AssertValid@CRecordset@@UBEXXZ 5f70b182 f   dbcore.obj
 0001:0000a1af       ?Dump@CRecordset@@UBEXAAVCDumpContext@@@Z 5f70b1af f   dbcore.obj
 0001:0000a430       ?AfxSetCurrentRecord@@YGXPAJJF@Z 5f70b430 f   dbcore.obj
 0001:0000a455       ?AfxSetRecordCount@@YGXPAJJJHF@Z 5f70b455 f   dbcore.obj
 0001:0000a498       ?AfxSetRecordCount@@YGXPAJJHF@Z 5f70b498 f   dbcore.obj
 0001:0000a4df       ?IsOpen@CDatabase@@QBEHXZ  5f70b4df f   dbcore.obj
 0001:0000a506       ?CanUpdate@CDatabase@@QBEHXZ 5f70b506 f   dbcore.obj
 0001:0000a540       ?CanTransact@CDatabase@@QBEHXZ 5f70b540 f   dbcore.obj
 0001:0000a57a       ?SetLoginTimeout@CDatabase@@QAEXK@Z 5f70b57a f   dbcore.obj
 0001:0000a5a0       ?SetQueryTimeout@CDatabase@@QAEXK@Z 5f70b5a0 f   dbcore.obj
 0001:0000a5c6       ?GetConnect@CDatabase@@QBEABVCString@@XZ 5f70b5c6 f   dbcore.obj
 0001:0000a5e7       ?GetBookmarkPersistence@CDatabase@@QBEKXZ 5f70b5e7 f   dbcore.obj
 0001:0000a608       ?GetCursorCommitBehavior@CDatabase@@QBEHXZ 5f70b608 f   dbcore.obj
 0001:0000a62a       ?GetCursorRollbackBehavior@CDatabase@@QBEHXZ 5f70b62a f   dbcore.obj
 0001:0000a64c       ?ThrowDBException@CDatabase@@MAEXF@Z 5f70b64c f   dbcore.obj
 0001:0000a67e       ?SetSynchronousMode@CDatabase@@QAEXH@Z 5f70b67e f   dbcore.obj
 0001:0000a6ad       ?GetSQL@CRecordset@@QBEABVCString@@XZ 5f70b6ad f   dbcore.obj
 0001:0000a6e9       ?GetTableName@CRecordset@@QBEABVCString@@XZ 5f70b6e9 f   dbcore.obj
 0001:0000a725       ?IsBOF@CRecordset@@QBEHXZ  5f70b725 f   dbcore.obj
 0001:0000a762       ?IsEOF@CRecordset@@QBEHXZ  5f70b762 f   dbcore.obj
 0001:0000a79f       ?IsDeleted@CRecordset@@QBEHXZ 5f70b79f f   dbcore.obj
 0001:0000a7dc       ?CanUpdate@CRecordset@@QBEHXZ 5f70b7dc f   dbcore.obj
 0001:0000a819       ?CanScroll@CRecordset@@QBEHXZ 5f70b819 f   dbcore.obj
 0001:0000a856       ?CanAppend@CRecordset@@QBEHXZ 5f70b856 f   dbcore.obj
 0001:0000a893       ?CanRestart@CRecordset@@QBEHXZ 5f70b893 f   dbcore.obj
 0001:0000a8d7       ?CanTransact@CRecordset@@QBEHXZ 5f70b8d7 f   dbcore.obj
 0001:0000a917       ?GetODBCFieldCount@CRecordset@@QBEFXZ 5f70b917 f   dbcore.obj
 0001:0000a952       ?GetRowsetSize@CRecordset@@QBEKXZ 5f70b952 f   dbcore.obj
 0001:0000a98f       ?GetRowsFetched@CRecordset@@QBEKXZ 5f70b98f f   dbcore.obj
 0001:0000a9cc       ?GetRowStatus@CRecordset@@QBEGG@Z 5f70b9cc f   dbcore.obj
 0001:0000aa3c       ?GetRecordCount@CRecordset@@QBEJXZ 5f70ba3c f   dbcore.obj
 0001:0000aa79       ?GetStatus@CRecordset@@QBEXAAUCRecordsetStatus@@@Z 5f70ba79 f   dbcore.obj
 0001:0000aacc       ?ThrowDBException@CRecordset@@UAEXFPAX@Z 5f70bacc f   dbcore.obj
 0001:0000ab17       ?MoveNext@CRecordset@@QAEXXZ 5f70bb17 f   dbcore.obj
 0001:0000ab5a       ?MovePrev@CRecordset@@QAEXXZ 5f70bb5a f   dbcore.obj
 0001:0000ab9d       ?MoveFirst@CRecordset@@QAEXXZ 5f70bb9d f   dbcore.obj
 0001:0000abe0       ?MoveLast@CRecordset@@QAEXXZ 5f70bbe0 f   dbcore.obj
 0001:0000ac23       ?SetAbsolutePosition@CRecordset@@QAEXJ@Z 5f70bc23 f   dbcore.obj
 0001:0000ac70       ??_G_AFX_DB_STATE@@UAEPAXI@Z 5f70bc70 f i dbcore.obj
 0001:0000ac70       ??_E_AFX_DB_STATE@@UAEPAXI@Z 5f70bc70 f i dbcore.obj
 0001:0000aca0       ??1CNoTrackObject@@UAE@XZ  5f70bca0 f i dbcore.obj
 0001:0000acc0       ??_GCNoTrackObject@@UAEPAXI@Z 5f70bcc0 f i dbcore.obj
 0001:0000acc0       ??_ECNoTrackObject@@UAEPAXI@Z 5f70bcc0 f i dbcore.obj
 0001:0000acf0       ??_GCDBException@@UAEPAXI@Z 5f70bcf0 f i dbcore.obj
 0001:0000acf0       ??_ECDBException@@UAEPAXI@Z 5f70bcf0 f i dbcore.obj
 0001:0000ad20       __tcsnicmp                 5f70bd20 f i dbcore.obj
 0001:0000ad40       __tcsinc                   5f70bd40 f i dbcore.obj
 0001:0000ad60       ??_ECRecordset@@UAEPAXI@Z  5f70bd60 f i dbcore.obj
 0001:0000ad60       ??_GCRecordset@@UAEPAXI@Z  5f70bd60 f i dbcore.obj
 0001:0000ad90       ??_ECODBCFieldInfo@@QAEPAXI@Z 5f70bd90 f i dbcore.obj
 0001:0000adf0       ??1CODBCFieldInfo@@QAE@XZ  5f70bdf0 f i dbcore.obj
 0001:0000ae10       ?T2A@@YAPADPAD@Z           5f70be10 f i dbcore.obj
 0001:0000ae10       ?T2CA@@YAPBDPBD@Z          5f70be10 f i dbcore.obj
 0001:0000ae20       ??0CODBCFieldInfo@@QAE@XZ  5f70be20 f i dbcore.obj
 0001:0000ae40       __tcsstr                   5f70be40 f i dbcore.obj
 0001:0000ae60       ??_GCString@@QAEPAXI@Z     5f70be60 f i dbcore.obj
 0001:0000ae90       ??0CFieldExchange@@QAE@IPAVCRecordset@@PAX@Z 5f70be90 f   dbrfx.obj
 0001:0000af6d       ?IsFieldType@CFieldExchange@@QAEHPAI@Z 5f70bf6d f   dbrfx.obj
 0001:0000b06d       ?Default@CFieldExchange@@QAEXPBDPAXPAJHII@Z 5f70c06d f   dbrfx.obj
 0001:0000b655       ?RFX_Text@@YGXPAVCFieldExchange@@PBDAAVCString@@HHF@Z 5f70c655 f   dbrfx.obj
 0001:0000bd3d       ?RFX_Int@@YGXPAVCFieldExchange@@PBDAAH@Z 5f70cd3d f   dbrfx.obj
 0001:0000bfda       ?RFX_Long@@YGXPAVCFieldExchange@@PBDAAJ@Z 5f70cfda f   dbrfx.obj
 0001:0000c277       ?RFX_Byte@@YGXPAVCFieldExchange@@PBDAAE@Z 5f70d277 f   dbrfx.obj
 0001:0000c516       ?RFX_Bool@@YGXPAVCFieldExchange@@PBDAAH@Z 5f70d516 f   dbrfx.obj
 0001:0000c7bb       ?RFX_Binary@@YGXPAVCFieldExchange@@PBDAAVCByteArray@@H@Z 5f70d7bb f   dbrfx.obj
 0001:0000cc64       ?RFX_Date@@YGXPAVCFieldExchange@@PBDAAVCTime@@@Z 5f70dc64 f   dbrfx.obj
 0001:0000d799       ?RFX_Date@@YGXPAVCFieldExchange@@PBDAAUtagTIMESTAMP_STRUCT@@@Z 5f70e799 f   dbrfx.obj
 0001:0000dcbe       ?RFX_LongBinary@@YGXPAVCFieldExchange@@PBDAAVCLongBinary@@@Z 5f70ecbe f   dbrfx.obj
 0001:0000e287       ?GetLongBinarySize@CFieldExchange@@QAEJH@Z 5f70f287 f   dbrfx.obj
 0001:0000e3c1       ?GetLongBinaryData@CFieldExchange@@QAEXHAAVCLongBinary@@PAJ@Z 5f70f3c1 f   dbrfx.obj
 0001:0000e613       ?ReallocLongBinary@CFieldExchange@@QAEPAEAAVCLongBinary@@JJ@Z 5f70f613 f   dbrfx.obj
 0001:0000e718       ?AfxStoreField@@YGXAAVCRecordset@@IPAX@Z 5f70f718 f   dbrfx.obj
 0001:0000e826       ?AfxLoadField@@YGXAAVCRecordset@@IPAXPAJ@Z 5f70f826 f   dbrfx.obj
 0001:0000e932       ?AfxCompareValueByRef@@YGHPAX0H@Z 5f70f932 f   dbrfx.obj
 0001:0000ebe2       ?AfxCopyValueByRef@@YGXPAX0PAJH@Z 5f70fbe2 f   dbrfx.obj
 0001:0000ee33       ?RFX_Text_Bulk@@YGXPAVCFieldExchange@@PBDPAPADPAPAJH@Z 5f70fe33 f   dbrfx.obj
 0001:0000efb7       ?RFX_Bool_Bulk@@YGXPAVCFieldExchange@@PBDPAPAHPAPAJ@Z 5f70ffb7 f   dbrfx.obj
 0001:0000f138       ?RFX_Int_Bulk@@YGXPAVCFieldExchange@@PBDPAPAHPAPAJ@Z 5f710138 f   dbrfx.obj
 0001:0000f2b9       ?RFX_Long_Bulk@@YGXPAVCFieldExchange@@PBDPAPAJ2@Z 5f7102b9 f   dbrfx.obj
 0001:0000f43a       ?RFX_Date_Bulk@@YGXPAVCFieldExchange@@PBDPAPAUtagTIMESTAMP_STRUCT@@PAPAJ@Z 5f71043a f   dbrfx.obj
 0001:0000f5bb       ?RFX_Byte_Bulk@@YGXPAVCFieldExchange@@PBDPAPAEPAPAJ@Z 5f7105bb f   dbrfx.obj
 0001:0000f739       ?RFX_Binary_Bulk@@YGXPAVCFieldExchange@@PBDPAPAEPAPAJH@Z 5f710739 f   dbrfx.obj
 0001:0000f8bd       ?AfxRFXBulkDefault@@YGXPAVCFieldExchange@@PBDPAXPAJHI@Z 5f7108bd f   dbrfx.obj
 0001:0000f9bb       ?SetFieldType@CFieldExchange@@QAEXI@Z 5f7109bb f   dbrfx.obj
 0001:0000fa10       ?SetLength@CDBByteArray@@QAEXH@Z 5f710a10 f i dbrfx.obj
 0001:0000fa50       ?_GetBaseMessageMap@CRecordView@@KGPBUAFX_MSGMAP@@XZ 5f710a50 f   dbview.obj
 0001:0000fa5a       ?GetMessageMap@CRecordView@@MBEPBUAFX_MSGMAP@@XZ 5f710a5a f   dbview.obj
 0001:0000fa6a       ??0CRecordView@@IAE@PBD@Z  5f710a6a f   dbview.obj
 0001:0000fa8f       ??0CRecordView@@IAE@I@Z    5f710a8f f   dbview.obj
 0001:0000fab4       ??1CRecordView@@UAE@XZ     5f710ab4 f   dbview.obj
 0001:0000fad0       ?OnInitialUpdate@CRecordView@@UAEXXZ 5f710ad0 f   dbview.obj
 0001:0000fb73       ?IsOnFirstRecord@CRecordView@@QAEHXZ 5f710b73 f   dbview.obj
 0001:0000fbb2       ?IsOnLastRecord@CRecordView@@QAEHXZ 5f710bb2 f   dbview.obj
 0001:0000fc0f       ?OnMove@CRecordView@@UAEHI@Z 5f710c0f f   dbview.obj
 0001:0000fd39       ?OnUpdateRecordFirst@CRecordView@@IAEXPAVCCmdUI@@@Z 5f710d39 f   dbview.obj
 0001:0000fdb3       ?OnUpdateRecordPrev@CRecordView@@IAEXPAVCCmdUI@@@Z 5f710db3 f   dbview.obj
 0001:0000fdcc       ?OnUpdateRecordNext@CRecordView@@IAEXPAVCCmdUI@@@Z 5f710dcc f   dbview.obj
 0001:0000fe3a       ?OnUpdateRecordLast@CRecordView@@IAEXPAVCCmdUI@@@Z 5f710e3a f   dbview.obj
 0001:0000feb4       ?AfxFieldText@@YGHPAVCDataExchange@@HPAXPAVCRecordset@@@Z 5f710eb4 f   dbview.obj
 0001:0000ff90       ?DDX_FieldText@@YGXPAVCDataExchange@@HAAHPAVCRecordset@@@Z 5f710f90 f   dbview.obj
 0001:0000ffc1       ?DDX_FieldText@@YGXPAVCDataExchange@@HAAEPAVCRecordset@@@Z 5f710fc1 f   dbview.obj
 0001:0000fff2       ?DDX_FieldText@@YGXPAVCDataExchange@@HAAIPAVCRecordset@@@Z 5f710ff2 f   dbview.obj
 0001:00010023       ?DDX_FieldText@@YGXPAVCDataExchange@@HAAJPAVCRecordset@@@Z 5f711023 f   dbview.obj
 0001:00010054       ?DDX_FieldText@@YGXPAVCDataExchange@@HAAKPAVCRecordset@@@Z 5f711054 f   dbview.obj
 0001:00010085       ?DDX_FieldText@@YGXPAVCDataExchange@@HAAVCString@@PAVCRecordset@@@Z 5f711085 f   dbview.obj
 0001:00010211       ?DDX_FieldLBString@@YGXPAVCDataExchange@@HAAVCString@@PAVCRecordset@@@Z 5f711211 f   dbview.obj
 0001:0001038c       ?DDX_FieldLBStringExact@@YGXPAVCDataExchange@@HAAVCString@@PAVCRecordset@@@Z 5f71138c f   dbview.obj
 0001:00010456       ?DDX_FieldLBIndex@@YGXPAVCDataExchange@@HAAHPAVCRecordset@@@Z 5f711456 f   dbview.obj
 0001:000104c2       ?DDX_FieldCBString@@YGXPAVCDataExchange@@HAAVCString@@PAVCRecordset@@@Z 5f7114c2 f   dbview.obj
 0001:00010689       ?DDX_FieldCBStringExact@@YGXPAVCDataExchange@@HAAVCString@@PAVCRecordset@@@Z 5f711689 f   dbview.obj
 0001:00010753       ?DDX_FieldCBIndex@@YGXPAVCDataExchange@@HAAHPAVCRecordset@@@Z 5f711753 f   dbview.obj
 0001:000107bf       ?DDX_FieldScroll@@YGXPAVCDataExchange@@HAAHPAVCRecordset@@@Z 5f7117bf f   dbview.obj
 0001:0001082b       ?DDX_FieldCheck@@YGXPAVCDataExchange@@HAAHPAVCRecordset@@@Z 5f71182b f   dbview.obj
 0001:00010998       ?DDX_FieldRadio@@YGXPAVCDataExchange@@HAAHPAVCRecordset@@@Z 5f711998 f   dbview.obj
 0001:00010a33       ?AssertValid@CRecordView@@UBEXXZ 5f711a33 f   dbview.obj
 0001:00010a46       ?Dump@CRecordView@@UBEXAAVCDumpContext@@@Z 5f711a46 f   dbview.obj
 0001:00010aa8       ?OnMove@CRecordView@@IAEXHH@Z 5f711aa8 f   dbview.obj
 0001:00010ad0       ??_GCRecordView@@UAEPAXI@Z 5f711ad0 f i dbview.obj
 0001:00010ad0       ??_ECRecordView@@UAEPAXI@Z 5f711ad0 f i dbview.obj
 0001:00010b00       ??1CFormView@@UAE@XZ       5f711b00 f i dbview.obj
 0001:00010b20       ??_9@$BBBE@AE              5f711b20 f i dbview.obj
 0001:00010b30       ?RFX_Single@@YGXPAVCFieldExchange@@PBDAAM@Z 5f711b30 f   dbflt.obj
 0001:00010ddc       ?RFX_Double@@YGXPAVCFieldExchange@@PBDAAN@Z 5f711ddc f   dbflt.obj
 0001:000110be       ?RFX_Single_Bulk@@YGXPAVCFieldExchange@@PBDPAPAMPAPAJ@Z 5f7120be f   dbflt.obj
 0001:0001122b       ?RFX_Double_Bulk@@YGXPAVCFieldExchange@@PBDPAPANPAPAJ@Z 5f71222b f   dbflt.obj
 0001:00011398       ?DDX_FieldText@@YGXPAVCDataExchange@@HAAMPAVCRecordset@@@Z 5f712398 f   dbflt.obj
 0001:000113d6       ?DDX_FieldText@@YGXPAVCDataExchange@@HAANPAVCRecordset@@@Z 5f7123d6 f   dbflt.obj
 0001:00011420       ??0CLongBinary@@QAE@XZ     5f712420 f   dblong.obj
 0001:00011449       ??1CLongBinary@@UAE@XZ     5f712449 f   dblong.obj
 0001:000114b2       ?AssertValid@CLongBinary@@UBEXXZ 5f7124b2 f   dblong.obj
 0001:000114c5       ?Dump@CLongBinary@@UBEXAAVCDumpContext@@@Z 5f7124c5 f   dblong.obj
 0001:00011530       ??0CDBVariant@@QAE@XZ      5f712530 f   dbvar.obj
 0001:00011551       ?Clear@CDBVariant@@QAEXXZ  5f712551 f   dbvar.obj
 0001:000115f5       ??1CDBVariant@@UAE@XZ      5f7125f5 f   dbvar.obj
 0001:00011620       ??_ECDBVariant@@UAEPAXI@Z  5f712620 f i dbvar.obj
 0001:00011620       ??_GCDBVariant@@UAEPAXI@Z  5f712620 f i dbvar.obj
 0001:00011650       ??0_AFX_DAO_STATE@@QAE@XZ  5f712650 f   daocore.obj
 0001:000116bd       ??1_AFX_DAO_STATE@@UAE@XZ  5f7126bd f   daocore.obj
 0001:000117b3       ?AfxDaoCheck@@YGXJPBD0HHH@Z 5f7127b3 f   daocore.obj
 0001:0001183a       ?AfxDaoTrace@@YGXJPBD0H@Z  5f71283a f   daocore.obj
 0001:0001189e       ?Dump@CDaoErrorInfo@@UBEXAAVCDumpContext@@@Z 5f71289e f   daocore.obj
 0001:00011954       ?Dump@CDaoWorkspaceInfo@@UBEXAAVCDumpContext@@@Z 5f712954 f   daocore.obj
 0001:000119d5       ?Dump@CDaoDatabaseInfo@@UBEXAAVCDumpContext@@@Z 5f7129d5 f   daocore.obj
 0001:00011ac2       ?Dump@CDaoTableDefInfo@@UBEXAAVCDumpContext@@@Z 5f712ac2 f   daocore.obj
 0001:00011c13       ?Dump@CDaoFieldInfo@@UBEXAAVCDumpContext@@@Z 5f712c13 f   daocore.obj
 0001:00011dba       ?Dump@CDaoIndexFieldInfo@@UBEXAAVCDumpContext@@@Z 5f712dba f   daocore.obj
 0001:00011e14       ??0CDaoIndexInfo@@QAE@XZ   5f712e14 f   daocore.obj
 0001:00011e53       ??1CDaoIndexInfo@@UAE@XZ   5f712e53 f   daocore.obj
 0001:00011ee8       ?Dump@CDaoIndexInfo@@UBEXAAVCDumpContext@@@Z 5f712ee8 f   daocore.obj
 0001:00012052       ?Dump@CDaoRelationFieldInfo@@UBEXAAVCDumpContext@@@Z 5f713052 f   daocore.obj
 0001:000120ab       ??0CDaoRelationInfo@@QAE@XZ 5f7130ab f   daocore.obj
 0001:00012131       ??1CDaoRelationInfo@@UAE@XZ 5f713131 f   daocore.obj
 0001:000121e4       ?Dump@CDaoRelationInfo@@UBEXAAVCDumpContext@@@Z 5f7131e4 f   daocore.obj
 0001:000122e0       ?Dump@CDaoQueryDefInfo@@UBEXAAVCDumpContext@@@Z 5f7132e0 f   daocore.obj
 0001:0001241a       ?Dump@CDaoParameterInfo@@UBEXAAVCDumpContext@@@Z 5f71341a f   daocore.obj
 0001:000124e3       ?_GetBaseClass@CDaoException@@KGPAUCRuntimeClass@@XZ 5f7134e3 f   daocore.obj
 0001:000124ed       ?GetRuntimeClass@CDaoException@@UBEPAUCRuntimeClass@@XZ 5f7134ed f   daocore.obj
 0001:000124fd       ??0CDaoException@@QAE@XZ   5f7134fd f   daocore.obj
 0001:0001253a       ??1CDaoException@@UAE@XZ   5f71353a f   daocore.obj
 0001:00012604       ?GetErrorCount@CDaoException@@QAEFXZ 5f713604 f   daocore.obj
 0001:00012667       ?GetErrorInfo@CDaoException@@QAEXH@Z 5f713667 f   daocore.obj
 0001:00012798       ?GetErrorMessage@CDaoException@@UAEHPADIPAI@Z 5f713798 f   daocore.obj
 0001:000128d4       ?InitErrorsCollection@CDaoException@@IAEXXZ 5f7138d4 f   daocore.obj
 0001:00012930       ?FillErrorInfo@CDaoException@@IAEXXZ 5f713930 f   daocore.obj
 0001:00012b3d       ?AfxThrowDaoException@@YGXHJ@Z 5f713b3d f   daocore.obj
 0001:00012cb7       ?_GetBaseClass@CDaoWorkspace@@KGPAUCRuntimeClass@@XZ 5f713cb7 f   daocore.obj
 0001:00012cc1       ?GetRuntimeClass@CDaoWorkspace@@UBEPAUCRuntimeClass@@XZ 5f713cc1 f   daocore.obj
 0001:00012cd1       ??0CDaoWorkspace@@QAE@XZ   5f713cd1 f   daocore.obj
 0001:00012d66       ??1CDaoWorkspace@@UAE@XZ   5f713d66 f   daocore.obj
 0001:00012e05       ?Create@CDaoWorkspace@@UAEXPBD00@Z 5f713e05 f   daocore.obj
 0001:00012f83       ?Append@CDaoWorkspace@@UAEXXZ 5f713f83 f   daocore.obj
 0001:000130fa       ?Open@CDaoWorkspace@@UAEXPBD@Z 5f7140fa f   daocore.obj
 0001:000132e4       ?Close@CDaoWorkspace@@UAEXXZ 5f7142e4 f   daocore.obj
 0001:00013426       ?GetVersion@CDaoWorkspace@@SG?AVCString@@XZ 5f714426 f   daocore.obj
 0001:000134d5       ?GetIniPath@CDaoWorkspace@@SG?AVCString@@XZ 5f7144d5 f   daocore.obj
 0001:00013584       ?SetIniPath@CDaoWorkspace@@SGXPBD@Z 5f714584 f   daocore.obj
 0001:00013618       ?SetDefaultUser@CDaoWorkspace@@SGXPBD@Z 5f714618 f   daocore.obj
 0001:000136ac       ?SetDefaultPassword@CDaoWorkspace@@SGXPBD@Z 5f7146ac f   daocore.obj
 0001:00013740       ?GetLoginTimeout@CDaoWorkspace@@SGFXZ 5f714740 f   daocore.obj
 0001:00013793       ?SetLoginTimeout@CDaoWorkspace@@SGXF@Z 5f714793 f   daocore.obj
 0001:000137e3       ?GetName@CDaoWorkspace@@QAE?AVCString@@XZ 5f7147e3 f   daocore.obj
 0001:000138bc       ?GetUserNameA@CDaoWorkspace@@QAE?AVCString@@XZ 5f7148bc f   daocore.obj
 0001:00013995       ?SetIsolateODBCTrans@CDaoWorkspace@@QAEXH@Z 5f714995 f   daocore.obj
 0001:00013a11       ?GetIsolateODBCTrans@CDaoWorkspace@@QAEHXZ 5f714a11 f   daocore.obj
 0001:00013a95       ?CompactDatabase@CDaoWorkspace@@SGXPBD00H0@Z 5f714a95 f   daocore.obj
 0001:00013ce2       ?CompactDatabase@CDaoWorkspace@@SGXPBD00H@Z 5f714ce2 f   daocore.obj
 0001:00013d00       ?RepairDatabase@CDaoWorkspace@@SGXPBD@Z 5f714d00 f   daocore.obj
 0001:00013d94       ?Idle@CDaoWorkspace@@SGXH@Z 5f714d94 f   daocore.obj
 0001:00013e63       ?GetWorkspaceCount@CDaoWorkspace@@QAEFXZ 5f714e63 f   daocore.obj
 0001:00013ec7       ?GetWorkspaceInfo@CDaoWorkspace@@QAEXHAAUCDaoWorkspaceInfo@@K@Z 5f714ec7 f   daocore.obj
 0001:00013fcb       ?GetWorkspaceInfo@CDaoWorkspace@@QAEXPBDAAUCDaoWorkspaceInfo@@K@Z 5f714fcb f   daocore.obj
 0001:000140cf       ?GetDatabaseCount@CDaoWorkspace@@QAEFXZ 5f7150cf f   daocore.obj
 0001:00014133       ?GetDatabaseInfo@CDaoWorkspace@@QAEXHAAUCDaoDatabaseInfo@@K@Z 5f715133 f   daocore.obj
 0001:00014237       ?GetDatabaseInfo@CDaoWorkspace@@QAEXPBDAAUCDaoDatabaseInfo@@K@Z 5f715237 f   daocore.obj
 0001:0001433b       ?BeginTrans@CDaoWorkspace@@QAEXXZ 5f71533b f   daocore.obj
 0001:000143d3       ?CommitTrans@CDaoWorkspace@@QAEXXZ 5f7153d3 f   daocore.obj
 0001:000144c6       ?Rollback@CDaoWorkspace@@QAEXXZ 5f7154c6 f   daocore.obj
 0001:0001455e       ?InitializeEngine@CDaoWorkspace@@KAXXZ 5f71555e f   daocore.obj
 0001:00014568       ?InitWorkspacesCollection@CDaoWorkspace@@IAEXXZ 5f715568 f   daocore.obj
 0001:000145d0       ?FillWorkspaceInfo@CDaoWorkspace@@IAEXPAUDAOWorkspace@@AAUCDaoWorkspaceInfo@@K@Z 5f7155d0 f   daocore.obj
 0001:0001475a       ?InitDatabasesCollection@CDaoWorkspace@@IAEXXZ 5f71575a f   daocore.obj
 0001:000147aa       ?FillDatabaseInfo@CDaoWorkspace@@IAEXPAUDAODatabase@@AAUCDaoDatabaseInfo@@K@Z 5f7157aa f   daocore.obj
 0001:00014a15       ?ThrowDaoException@CDaoWorkspace@@MAEXH@Z 5f715a15 f   daocore.obj
 0001:00014a40       ?AssertValid@CDaoWorkspace@@UBEXXZ 5f715a40 f   daocore.obj
 0001:00014a53       ?Dump@CDaoWorkspace@@UBEXAAVCDumpContext@@@Z 5f715a53 f   daocore.obj
 0001:00014add       ?_GetBaseClass@CDaoDatabase@@KGPAUCRuntimeClass@@XZ 5f715add f   daocore.obj
 0001:00014ae7       ?GetRuntimeClass@CDaoDatabase@@UBEPAUCRuntimeClass@@XZ 5f715ae7 f   daocore.obj
 0001:00014af7       ??0CDaoDatabase@@QAE@PAVCDaoWorkspace@@@Z 5f715af7 f   daocore.obj
 0001:00014bc3       ??1CDaoDatabase@@UAE@XZ    5f715bc3 f   daocore.obj
 0001:00014cae       ?Create@CDaoDatabase@@UAEXPBD0H@Z 5f715cae f   daocore.obj
 0001:00014e22       ?Open@CDaoDatabase@@UAEXPBDHH0@Z 5f715e22 f   daocore.obj
 0001:00015063       ?Close@CDaoDatabase@@UAEXXZ 5f716063 f   daocore.obj
 0001:00015255       ?CanUpdate@CDaoDatabase@@QAEHXZ 5f716255 f   daocore.obj
 0001:000152ff       ?CanTransact@CDaoDatabase@@QAEHXZ 5f7162ff f   daocore.obj
 0001:000153a9       ?GetName@CDaoDatabase@@QAE?AVCString@@XZ 5f7163a9 f   daocore.obj
 0001:000154a7       ?GetConnect@CDaoDatabase@@QAE?AVCString@@XZ 5f7164a7 f   daocore.obj
 0001:000155a5       ?GetVersion@CDaoDatabase@@QAE?AVCString@@XZ 5f7165a5 f   daocore.obj
 0001:000156a3       ?GetQueryTimeout@CDaoDatabase@@QAEFXZ 5f7166a3 f   daocore.obj
 0001:00015745       ?SetQueryTimeout@CDaoDatabase@@QAEXF@Z 5f716745 f   daocore.obj
 0001:000157e4       ?GetRecordsAffected@CDaoDatabase@@QAEJXZ 5f7167e4 f   daocore.obj
 0001:00015885       ?DeleteTableDef@CDaoDatabase@@QAEXPBD@Z 5f716885 f   daocore.obj
 0001:00015956       ?DeleteQueryDef@CDaoDatabase@@QAEXPBD@Z 5f716956 f   daocore.obj
 0001:00015a27       ?CreateRelation@CDaoDatabase@@QAEXPBD00J00@Z 5f716a27 f   daocore.obj
 0001:00015afe       ?CreateRelation@CDaoDatabase@@QAEXAAUCDaoRelationInfo@@@Z 5f716afe f   daocore.obj
 0001:000160be       ?DeleteRelation@CDaoDatabase@@QAEXPBD@Z 5f7170be f   daocore.obj
 0001:0001618f       ?Execute@CDaoDatabase@@QAEXPBDH@Z 5f71718f f   daocore.obj
 0001:000162a9       ?GetTableDefCount@CDaoDatabase@@QAEFXZ 5f7172a9 f   daocore.obj
 0001:0001630d       ?GetTableDefInfo@CDaoDatabase@@QAEXHAAUCDaoTableDefInfo@@K@Z 5f71730d f   daocore.obj
 0001:00016411       ?GetTableDefInfo@CDaoDatabase@@QAEXPBDAAUCDaoTableDefInfo@@K@Z 5f717411 f   daocore.obj
 0001:00016515       ?GetRelationCount@CDaoDatabase@@QAEFXZ 5f717515 f   daocore.obj
 0001:00016579       ?GetRelationInfo@CDaoDatabase@@QAEXHAAUCDaoRelationInfo@@K@Z 5f717579 f   daocore.obj
 0001:0001667d       ?GetRelationInfo@CDaoDatabase@@QAEXPBDAAUCDaoRelationInfo@@K@Z 5f71767d f   daocore.obj
 0001:00016781       ?GetQueryDefCount@CDaoDatabase@@QAEFXZ 5f717781 f   daocore.obj
 0001:000167e5       ?GetQueryDefInfo@CDaoDatabase@@QAEXHAAUCDaoQueryDefInfo@@K@Z 5f7177e5 f   daocore.obj
 0001:000168e9       ?GetQueryDefInfo@CDaoDatabase@@QAEXPBDAAUCDaoQueryDefInfo@@K@Z 5f7178e9 f   daocore.obj
 0001:000169ed       ?InitWorkspace@CDaoDatabase@@IAEXXZ 5f7179ed f   daocore.obj
 0001:00016aa1       ?InitTableDefsCollection@CDaoDatabase@@IAEXXZ 5f717aa1 f   daocore.obj
 0001:00016af1       ?FillTableDefInfo@CDaoDatabase@@IAEXPAU_DAOTableDef@@AAUCDaoTableDefInfo@@K@Z 5f717af1 f   daocore.obj
 0001:00016e1d       ?InitRelationsCollection@CDaoDatabase@@IAEXXZ 5f717e1d f   daocore.obj
 0001:00016e6d       ?FillRelationInfo@CDaoDatabase@@IAEXPAU_DAORelation@@AAUCDaoRelationInfo@@K@Z 5f717e6d f   daocore.obj
 0001:00017367       ?InitQueryDefsCollection@CDaoDatabase@@IAEXXZ 5f718367 f   daocore.obj
 0001:000173b7       ?FillQueryDefInfo@CDaoDatabase@@IAEXPAU_DAOQueryDef@@AAUCDaoQueryDefInfo@@K@Z 5f7183b7 f   daocore.obj
 0001:00017677       ?ThrowDaoException@CDaoDatabase@@MAEXH@Z 5f718677 f   daocore.obj
 0001:000176a2       ?AssertValid@CDaoDatabase@@UBEXXZ 5f7186a2 f   daocore.obj
 0001:000176b5       ?Dump@CDaoDatabase@@UBEXAAVCDumpContext@@@Z 5f7186b5 f   daocore.obj
 0001:00017724       ?_GetBaseClass@CDaoTableDef@@KGPAUCRuntimeClass@@XZ 5f718724 f   daocore.obj
 0001:0001772e       ?GetRuntimeClass@CDaoTableDef@@UBEPAUCRuntimeClass@@XZ 5f71872e f   daocore.obj
 0001:0001773e       ??0CDaoTableDef@@QAE@PAVCDaoDatabase@@@Z 5f71873e f   daocore.obj
 0001:0001779a       ??1CDaoTableDef@@UAE@XZ    5f71879a f   daocore.obj
 0001:00017814       ?Create@CDaoTableDef@@UAEXPBDJ00@Z 5f718814 f   daocore.obj
 0001:00017aaa       ?Append@CDaoTableDef@@UAEXXZ 5f718aaa f   daocore.obj
 0001:00017c12       ?Open@CDaoTableDef@@UAEXPBD@Z 5f718c12 f   daocore.obj
 0001:00017e00       ?Close@CDaoTableDef@@UAEXXZ 5f718e00 f   daocore.obj
 0001:00017eb3       ?CanUpdate@CDaoTableDef@@QAEHXZ 5f718eb3 f   daocore.obj
 0001:00017f5d       ?SetName@CDaoTableDef@@QAEXPBD@Z 5f718f5d f   daocore.obj
 0001:00018049       ?GetName@CDaoTableDef@@QAE?AVCString@@XZ 5f719049 f   daocore.obj
 0001:00018147       ?SetSourceTableName@CDaoTableDef@@QAEXPBD@Z 5f719147 f   daocore.obj
 0001:00018233       ?GetSourceTableName@CDaoTableDef@@QAE?AVCString@@XZ 5f719233 f   daocore.obj
 0001:00018331       ?SetConnect@CDaoTableDef@@QAEXPBD@Z 5f719331 f   daocore.obj
 0001:0001841d       ?GetConnect@CDaoTableDef@@QAE?AVCString@@XZ 5f71941d f   daocore.obj
 0001:0001851b       ?SetAttributes@CDaoTableDef@@QAEXJ@Z 5f71951b f   daocore.obj
 0001:000185c2       ?GetAttributes@CDaoTableDef@@QAEJXZ 5f7195c2 f   daocore.obj
 0001:00018663       ?GetDateCreated@CDaoTableDef@@QAE?AVCOleDateTime@@XZ 5f719663 f   daocore.obj
 0001:00018753       ?GetDateLastUpdated@CDaoTableDef@@QAE?AVCOleDateTime@@XZ 5f719753 f   daocore.obj
 0001:00018843       ?SetValidationRule@CDaoTableDef@@QAEXPBD@Z 5f719843 f   daocore.obj
 0001:0001892f       ?GetValidationRule@CDaoTableDef@@QAE?AVCString@@XZ 5f71992f f   daocore.obj
 0001:00018a2d       ?SetValidationText@CDaoTableDef@@QAEXPBD@Z 5f719a2d f   daocore.obj
 0001:00018b19       ?GetValidationText@CDaoTableDef@@QAE?AVCString@@XZ 5f719b19 f   daocore.obj
 0001:00018c17       ?GetRecordCount@CDaoTableDef@@QAEJXZ 5f719c17 f   daocore.obj
 0001:00018cb8       ?CreateField@CDaoTableDef@@QAEXPBDFJJ@Z 5f719cb8 f   daocore.obj
 0001:00018d5e       ?CreateField@CDaoTableDef@@QAEXAAUCDaoFieldInfo@@@Z 5f719d5e f   daocore.obj
 0001:00018fd9       ?DeleteField@CDaoTableDef@@QAEXPBD@Z 5f719fd9 f   daocore.obj
 0001:000190a4       ?DeleteField@CDaoTableDef@@QAEXH@Z 5f71a0a4 f   daocore.obj
 0001:00019126       ?CreateIndex@CDaoTableDef@@QAEXAAUCDaoIndexInfo@@@Z 5f71a126 f   daocore.obj
 0001:000192bf       ?DeleteIndex@CDaoTableDef@@QAEXPBD@Z 5f71a2bf f   daocore.obj
 0001:0001938a       ?DeleteIndex@CDaoTableDef@@QAEXH@Z 5f71a38a f   daocore.obj
 0001:0001940c       ?GetFieldCount@CDaoTableDef@@QAEFXZ 5f71a40c f   daocore.obj
 0001:00019470       ?GetFieldInfo@CDaoTableDef@@QAEXHAAUCDaoFieldInfo@@K@Z 5f71a470 f   daocore.obj
 0001:00019574       ?GetFieldInfo@CDaoTableDef@@QAEXPBDAAUCDaoFieldInfo@@K@Z 5f71a574 f   daocore.obj
 0001:00019678       ?GetIndexCount@CDaoTableDef@@QAEFXZ 5f71a678 f   daocore.obj
 0001:000196dc       ?GetIndexInfo@CDaoTableDef@@QAEXHAAUCDaoIndexInfo@@K@Z 5f71a6dc f   daocore.obj
 0001:000197e0       ?GetIndexInfo@CDaoTableDef@@QAEXPBDAAUCDaoIndexInfo@@K@Z 5f71a7e0 f   daocore.obj
 0001:000198e4       ?RefreshLink@CDaoTableDef@@QAEXXZ 5f71a8e4 f   daocore.obj
 0001:0001997c       ?InitFieldsCollection@CDaoTableDef@@IAEXXZ 5f71a97c f   daocore.obj
 0001:000199cc       ?InitIndexesCollection@CDaoTableDef@@IAEXXZ 5f71a9cc f   daocore.obj
 0001:00019a1c       ?ThrowDaoException@CDaoTableDef@@MAEXH@Z 5f71aa1c f   daocore.obj
 0001:00019a47       ?AssertValid@CDaoTableDef@@UBEXXZ 5f71aa47 f   daocore.obj
 0001:00019a5a       ?Dump@CDaoTableDef@@UBEXAAVCDumpContext@@@Z 5f71aa5a f   daocore.obj
 0001:00019ac9       ?_GetBaseClass@CDaoQueryDef@@KGPAUCRuntimeClass@@XZ 5f71aac9 f   daocore.obj
 0001:00019ad3       ?GetRuntimeClass@CDaoQueryDef@@UBEPAUCRuntimeClass@@XZ 5f71aad3 f   daocore.obj
 0001:00019ae3       ??0CDaoQueryDef@@QAE@PAVCDaoDatabase@@@Z 5f71aae3 f   daocore.obj
 0001:00019b3f       ??1CDaoQueryDef@@UAE@XZ    5f71ab3f f   daocore.obj
 0001:00019bb9       ?Create@CDaoQueryDef@@UAEXPBD0@Z 5f71abb9 f   daocore.obj
 0001:00019e0e       ?Append@CDaoQueryDef@@UAEXXZ 5f71ae0e f   daocore.obj
 0001:00019f76       ?Open@CDaoQueryDef@@UAEXPBD@Z 5f71af76 f   daocore.obj
 0001:0001a16a       ?Close@CDaoQueryDef@@UAEXXZ 5f71b16a f   daocore.obj
 0001:0001a244       ?CanUpdate@CDaoQueryDef@@QAEHXZ 5f71b244 f   daocore.obj
 0001:0001a2cd       ?GetName@CDaoQueryDef@@QAE?AVCString@@XZ 5f71b2cd f   daocore.obj
 0001:0001a3a9       ?SetName@CDaoQueryDef@@QAEXPBD@Z 5f71b3a9 f   daocore.obj
 0001:0001a472       ?GetSQL@CDaoQueryDef@@QAE?AVCString@@XZ 5f71b472 f   daocore.obj
 0001:0001a54e       ?SetSQL@CDaoQueryDef@@QAEXPBD@Z 5f71b54e f   daocore.obj
 0001:0001a617       ?GetType@CDaoQueryDef@@QAEFXZ 5f71b617 f   daocore.obj
 0001:0001a696       ?GetDateCreated@CDaoQueryDef@@QAE?AVCOleDateTime@@XZ 5f71b696 f   daocore.obj
 0001:0001a763       ?GetDateLastUpdated@CDaoQueryDef@@QAE?AVCOleDateTime@@XZ 5f71b763 f   daocore.obj
 0001:0001a830       ?GetConnect@CDaoQueryDef@@QAE?AVCString@@XZ 5f71b830 f   daocore.obj
 0001:0001a90c       ?SetConnect@CDaoQueryDef@@QAEXPBD@Z 5f71b90c f   daocore.obj
 0001:0001a9d5       ?GetODBCTimeout@CDaoQueryDef@@QAEFXZ 5f71b9d5 f   daocore.obj
 0001:0001aa54       ?SetODBCTimeout@CDaoQueryDef@@QAEXF@Z 5f71ba54 f   daocore.obj
 0001:0001aad9       ?GetReturnsRecords@CDaoQueryDef@@QAEHXZ 5f71bad9 f   daocore.obj
 0001:0001ab62       ?SetReturnsRecords@CDaoQueryDef@@QAEXH@Z 5f71bb62 f   daocore.obj
 0001:0001abea       ?GetRecordsAffected@CDaoQueryDef@@QAEJXZ 5f71bbea f   daocore.obj
 0001:0001ac68       ?Execute@CDaoQueryDef@@UAEXH@Z 5f71bc68 f   daocore.obj
 0001:0001ad60       ?GetParamValue@CDaoQueryDef@@UAE?AVCOleVariant@@PBD@Z 5f71bd60 f   daocore.obj
 0001:0001af60       ?GetParamValue@CDaoQueryDef@@UAE?AVCOleVariant@@H@Z 5f71bf60 f   daocore.obj
 0001:0001b160       ?SetParamValue@CDaoQueryDef@@UAEXPBDABVCOleVariant@@@Z 5f71c160 f   daocore.obj
 0001:0001b365       ?SetParamValue@CDaoQueryDef@@UAEXHABVCOleVariant@@@Z 5f71c365 f   daocore.obj
 0001:0001b56a       ?SetParamValueNull@CDaoQueryDef@@QAEXPBD@Z 5f71c56a f   daocore.obj
 0001:0001b5e1       ?SetParamValueNull@CDaoQueryDef@@QAEXH@Z 5f71c5e1 f   daocore.obj
 0001:0001b658       ?GetFieldCount@CDaoQueryDef@@QAEFXZ 5f71c658 f   daocore.obj
 0001:0001b6bc       ?GetFieldInfo@CDaoQueryDef@@QAEXHAAUCDaoFieldInfo@@K@Z 5f71c6bc f   daocore.obj
 0001:0001b7c0       ?GetFieldInfo@CDaoQueryDef@@QAEXPBDAAUCDaoFieldInfo@@K@Z 5f71c7c0 f   daocore.obj
 0001:0001b8c4       ?GetParameterCount@CDaoQueryDef@@QAEFXZ 5f71c8c4 f   daocore.obj
 0001:0001b928       ?GetParameterInfo@CDaoQueryDef@@QAEXHAAUCDaoParameterInfo@@K@Z 5f71c928 f   daocore.obj
 0001:0001ba2c       ?GetParameterInfo@CDaoQueryDef@@QAEXPBDAAUCDaoParameterInfo@@K@Z 5f71ca2c f   daocore.obj
 0001:0001bb30       ?InitFieldsCollection@CDaoQueryDef@@IAEXXZ 5f71cb30 f   daocore.obj
 0001:0001bb80       ?InitParametersCollection@CDaoQueryDef@@IAEXXZ 5f71cb80 f   daocore.obj
 0001:0001bbd0       ?FillParameterInfo@CDaoQueryDef@@IAEXPAUDAOParameter@@AAUCDaoParameterInfo@@K@Z 5f71cbd0 f   daocore.obj
 0001:0001bd8a       ?ThrowDaoException@CDaoQueryDef@@MAEXH@Z 5f71cd8a f   daocore.obj
 0001:0001bdb5       ?AssertValid@CDaoQueryDef@@UBEXXZ 5f71cdb5 f   daocore.obj
 0001:0001bdc8       ?Dump@CDaoQueryDef@@UBEXAAVCDumpContext@@@Z 5f71cdc8 f   daocore.obj
 0001:0001be37       ?_GetBaseClass@CDaoRecordset@@KGPAUCRuntimeClass@@XZ 5f71ce37 f   daocore.obj
 0001:0001be41       ?GetRuntimeClass@CDaoRecordset@@UBEPAUCRuntimeClass@@XZ 5f71ce41 f   daocore.obj
 0001:0001be51       ??0CDaoRecordset@@QAE@PAVCDaoDatabase@@@Z 5f71ce51 f   daocore.obj
 0001:0001bfbe       ??1CDaoRecordset@@UAE@XZ   5f71cfbe f   daocore.obj
 0001:0001c0df       ?Open@CDaoRecordset@@UAEXHPBDH@Z 5f71d0df f   daocore.obj
 0001:0001ca33       ?Open@CDaoRecordset@@UAEXPAVCDaoQueryDef@@HH@Z 5f71da33 f   daocore.obj
 0001:0001cd23       ?Open@CDaoRecordset@@UAEXPAVCDaoTableDef@@HH@Z 5f71dd23 f   daocore.obj
 0001:0001cfc4       ?Close@CDaoRecordset@@UAEXXZ 5f71dfc4 f   daocore.obj
 0001:0001d2bb       ?Requery@CDaoRecordset@@UAEXXZ 5f71e2bb f   daocore.obj
 0001:0001d53f       ?GetDefaultDBName@CDaoRecordset@@UAE?AVCString@@XZ 5f71e53f f   daocore.obj
 0001:0001d581       ?GetDefaultSQL@CDaoRecordset@@UAE?AVCString@@XZ 5f71e581 f   daocore.obj
 0001:0001d5c3       ?DoFieldExchange@CDaoRecordset@@UAEXPAVCDaoFieldExchange@@@Z 5f71e5c3 f   daocore.obj
 0001:0001d5e3       ?IsBOF@CDaoRecordset@@QAEHXZ 5f71e5e3 f   daocore.obj
 0001:0001d66c       ?IsEOF@CDaoRecordset@@QAEHXZ 5f71e66c f   daocore.obj
 0001:0001d6f5       ?IsDeleted@CDaoRecordset@@QBEHXZ 5f71e6f5 f   daocore.obj
 0001:0001d745       ?CanScroll@CDaoRecordset@@QBEHXZ 5f71e745 f   daocore.obj
 0001:0001d795       ?CanUpdate@CDaoRecordset@@QBEHXZ 5f71e795 f   daocore.obj
 0001:0001d81e       ?CanAppend@CDaoRecordset@@QBEHXZ 5f71e81e f   daocore.obj
 0001:0001d86e       ?CanRestart@CDaoRecordset@@QAEHXZ 5f71e86e f   daocore.obj
 0001:0001d918       ?CanTransact@CDaoRecordset@@QAEHXZ 5f71e918 f   daocore.obj
 0001:0001d9a1       ?CanBookmark@CDaoRecordset@@QAEHXZ 5f71e9a1 f   daocore.obj
 0001:0001da2a       ?GetName@CDaoRecordset@@QAE?AVCString@@XZ 5f71ea2a f   daocore.obj
 0001:0001db28       ?GetType@CDaoRecordset@@QAEFXZ 5f71eb28 f   daocore.obj
 0001:0001dbca       ?GetEditMode@CDaoRecordset@@QAEFXZ 5f71ebca f   daocore.obj
 0001:0001dc6f       ?GetSQL@CDaoRecordset@@QBE?AVCString@@XZ 5f71ec6f f   daocore.obj
 0001:0001dd02       ?GetDateCreated@CDaoRecordset@@QAE?AVCOleDateTime@@XZ 5f71ed02 f   daocore.obj
 0001:0001ddf2       ?GetDateLastUpdated@CDaoRecordset@@QAE?AVCOleDateTime@@XZ 5f71edf2 f   daocore.obj
 0001:0001dee2       ?GetLastModifiedBookmark@CDaoRecordset@@QAE?AVCOleVariant@@XZ 5f71eee2 f   daocore.obj
 0001:0001dfe0       ?GetValidationRule@CDaoRecordset@@QAE?AVCString@@XZ 5f71efe0 f   daocore.obj
 0001:0001e0e1       ?GetValidationText@CDaoRecordset@@QAE?AVCString@@XZ 5f71f0e1 f   daocore.obj
 0001:0001e1df       ?GetCurrentIndex@CDaoRecordset@@QAE?AVCString@@XZ 5f71f1df f   daocore.obj
 0001:0001e2dd       ?SetCurrentIndex@CDaoRecordset@@QAEXPBD@Z 5f71f2dd f   daocore.obj
 0001:0001e3c8       ?GetRecordCount@CDaoRecordset@@QAEJXZ 5f71f3c8 f   daocore.obj
 0001:0001e469       ?SetFieldDirty@CDaoRecordset@@QAEXPAXH@Z 5f71f469 f   daocore.obj
 0001:0001e545       ?IsFieldDirty@CDaoRecordset@@QAEHPAX@Z 5f71f545 f   daocore.obj
 0001:0001e63d       ?SetFieldNull@CDaoRecordset@@QAEXPAXH@Z 5f71f63d f   daocore.obj
 0001:0001e755       ?IsFieldNull@CDaoRecordset@@QAEHPAX@Z 5f71f755 f   daocore.obj
 0001:0001e838       ?IsFieldNullable@CDaoRecordset@@QAEHPAX@Z 5f71f838 f   daocore.obj
 0001:0001e9ab       ?GetFieldCount@CDaoRecordset@@QAEFXZ 5f71f9ab f   daocore.obj
 0001:0001ea0f       ?GetFieldInfo@CDaoRecordset@@QAEXHAAUCDaoFieldInfo@@K@Z 5f71fa0f f   daocore.obj
 0001:0001eb13       ?GetFieldInfo@CDaoRecordset@@QAEXPBDAAUCDaoFieldInfo@@K@Z 5f71fb13 f   daocore.obj
 0001:0001ec17       ?GetIndexCount@CDaoRecordset@@QAEFXZ 5f71fc17 f   daocore.obj
 0001:0001ec7b       ?GetIndexInfo@CDaoRecordset@@QAEXHAAUCDaoIndexInfo@@K@Z 5f71fc7b f   daocore.obj
 0001:0001ed7f       ?GetIndexInfo@CDaoRecordset@@QAEXPBDAAUCDaoIndexInfo@@K@Z 5f71fd7f f   daocore.obj
 0001:0001ee83       ?GetBookmark@CDaoRecordset@@QAE?AVCOleVariant@@XZ 5f71fe83 f   daocore.obj
 0001:0001ef81       ?SetBookmark@CDaoRecordset@@QAEXVCOleVariant@@@Z 5f71ff81 f   daocore.obj
 0001:0001f05c       ?GetAbsolutePosition@CDaoRecordset@@QAEJXZ 5f72005c f   daocore.obj
 0001:0001f100       ?SetAbsolutePosition@CDaoRecordset@@QAEXJ@Z 5f720100 f   daocore.obj
 0001:0001f1a9       ?GetPercentPosition@CDaoRecordset@@QAEMXZ 5f7201a9 f   daocore.obj
 0001:0001f24d       ?SetPercentPosition@CDaoRecordset@@QAEXM@Z 5f72024d f   daocore.obj
 0001:0001f2f6       ?MoveNext@CDaoRecordset@@QAEXXZ 5f7202f6 f   daocore.obj
 0001:0001f321       ?MovePrev@CDaoRecordset@@QAEXXZ 5f720321 f   daocore.obj
 0001:0001f34c       ?MoveFirst@CDaoRecordset@@QAEXXZ 5f72034c f   daocore.obj
 0001:0001f37a       ?MoveLast@CDaoRecordset@@QAEXXZ 5f72037a f   daocore.obj
 0001:0001f3a8       ?Move@CDaoRecordset@@UAEXJ@Z 5f7203a8 f   daocore.obj
 0001:0001f5d7       ?FindNext@CDaoRecordset@@QAEHPBD@Z 5f7205d7 f   daocore.obj
 0001:0001f608       ?FindPrev@CDaoRecordset@@QAEHPBD@Z 5f720608 f   daocore.obj
 0001:0001f639       ?FindFirst@CDaoRecordset@@QAEHPBD@Z 5f720639 f   daocore.obj
 0001:0001f66d       ?FindLast@CDaoRecordset@@QAEHPBD@Z 5f72066d f   daocore.obj
 0001:0001f6a1       ?Find@CDaoRecordset@@UAEHJPBD@Z 5f7206a1 f   daocore.obj
 0001:0001f89f       ?Seek@CDaoRecordset@@QAEHPBDPAVCOleVariant@@11@Z 5f72089f f   daocore.obj
 0001:0001fc50       ?Seek@CDaoRecordset@@QAEHPBDPAVCOleVariant@@G@Z 5f720c50 f   daocore.obj
 0001:0001ffc9       ?CancelUpdate@CDaoRecordset@@UAEXXZ 5f720fc9 f   daocore.obj
 0001:0002007e       ?SetLockingMode@CDaoRecordset@@QAEXH@Z 5f72107e f   daocore.obj
 0001:00020120       ?GetLockingMode@CDaoRecordset@@QAEHXZ 5f721120 f   daocore.obj
 0001:000201ca       ?SetCacheStart@CDaoRecordset@@QAEXVCOleVariant@@@Z 5f7211ca f   daocore.obj
 0001:000202a0       ?GetCacheStart@CDaoRecordset@@QAE?AVCOleVariant@@XZ 5f7212a0 f   daocore.obj
 0001:000203a1       ?SetCacheSize@CDaoRecordset@@QAEXJ@Z 5f7213a1 f   daocore.obj
 0001:00020442       ?GetCacheSize@CDaoRecordset@@QAEJXZ 5f721442 f   daocore.obj
 0001:000204e6       ?FillCache@CDaoRecordset@@QAEXPAJPAVCOleVariant@@@Z 5f7214e6 f   daocore.obj
 0001:0002068b       ?AddNew@CDaoRecordset@@UAEXXZ 5f72168b f   daocore.obj
 0001:00020780       ?Edit@CDaoRecordset@@UAEXXZ 5f721780 f   daocore.obj
 0001:00020872       ?Update@CDaoRecordset@@UAEXXZ 5f721872 f   daocore.obj
 0001:00020964       ?Delete@CDaoRecordset@@UAEXXZ 5f721964 f   daocore.obj
 0001:00020a33       ?GetFieldValue@CDaoRecordset@@UAE?AVCOleVariant@@PBD@Z 5f721a33 f   daocore.obj
 0001:00020aae       ?GetFieldValue@CDaoRecordset@@UAE?AVCOleVariant@@H@Z 5f721aae f   daocore.obj
 0001:00020b29       ?GetFieldValue@CDaoRecordset@@UAEXPBDAAVCOleVariant@@@Z 5f721b29 f   daocore.obj
 0001:00020c56       ?GetFieldValue@CDaoRecordset@@UAEXHAAVCOleVariant@@@Z 5f721c56 f   daocore.obj
 0001:00020d83       ?SetFieldValue@CDaoRecordset@@UAEXPBDABVCOleVariant@@@Z 5f721d83 f   daocore.obj
 0001:00020eda       ?SetFieldValue@CDaoRecordset@@UAEXHABVCOleVariant@@@Z 5f721eda f   daocore.obj
 0001:00021031       ?SetFieldValue@CDaoRecordset@@QAEXHPBD@Z 5f722031 f   daocore.obj
 0001:00021096       ?SetFieldValue@CDaoRecordset@@QAEXPBD0@Z 5f722096 f   daocore.obj
 0001:000210fb       ?SetFieldValueNull@CDaoRecordset@@QAEXPBD@Z 5f7220fb f   daocore.obj
 0001:00021172       ?SetFieldValueNull@CDaoRecordset@@QAEXH@Z 5f722172 f   daocore.obj
 0001:000211e9       ?GetParamValue@CDaoRecordset@@UAE?AVCOleVariant@@PBD@Z 5f7221e9 f   daocore.obj
 0001:00021285       ?GetParamValue@CDaoRecordset@@UAE?AVCOleVariant@@H@Z 5f722285 f   daocore.obj
 0001:00021321       ?SetParamValue@CDaoRecordset@@UAEXPBDABVCOleVariant@@@Z 5f722321 f   daocore.obj
 0001:000213a9       ?SetParamValue@CDaoRecordset@@UAEXHABVCOleVariant@@@Z 5f7223a9 f   daocore.obj
 0001:00021431       ?SetParamValueNull@CDaoRecordset@@QAEXPBD@Z 5f722431 f   daocore.obj
 0001:000214a8       ?SetParamValueNull@CDaoRecordset@@QAEXH@Z 5f7224a8 f   daocore.obj
 0001:0002151f       ?GetFieldLength@CDaoRecordset@@QAEKH@Z 5f72251f f   daocore.obj
 0001:00021577       ?InitFieldsCollection@CDaoRecordset@@IAEXXZ 5f722577 f   daocore.obj
 0001:000215f6       ?InitIndexesCollection@CDaoRecordset@@IAEXXZ 5f7225f6 f   daocore.obj
 0001:00021678       ?BuildSQL@CDaoRecordset@@IAEXXZ 5f722678 f   daocore.obj
 0001:0002179c       ?AllocDatabase@CDaoRecordset@@IAEXXZ 5f72279c f   daocore.obj
 0001:0002189d       ?BuildSelectList@CDaoRecordset@@IAEXXZ 5f72289d f   daocore.obj
 0001:00021915       ?BuildParameterList@CDaoRecordset@@IAEXXZ 5f722915 f   daocore.obj
 0001:000219b0       ?BindFields@CDaoRecordset@@IAEXXZ 5f7229b0 f   daocore.obj
 0001:00021b35       ?BindParameters@CDaoRecordset@@IAEXXZ 5f722b35 f   daocore.obj
 0001:00021bb3       ?Fixup@CDaoRecordset@@IAEXXZ 5f722bb3 f   daocore.obj
 0001:00021bf2       ?AllocCache@CDaoRecordset@@IAEXXZ 5f722bf2 f   daocore.obj
 0001:00021c85       ?StoreFields@CDaoRecordset@@IAEXXZ 5f722c85 f   daocore.obj
 0001:00021cff       ?LoadFields@CDaoRecordset@@IAEXXZ 5f722cff f   daocore.obj
 0001:00021d5c       ?FreeCache@CDaoRecordset@@IAEXXZ 5f722d5c f   daocore.obj
 0001:00021e35       ?MarkForAddNew@CDaoRecordset@@IAEXXZ 5f722e35 f   daocore.obj
 0001:00021e74       ?MarkForEdit@CDaoRecordset@@IAEXXZ 5f722e74 f   daocore.obj
 0001:00021eb3       ?GetFieldIndex@CDaoRecordset@@IAEHPAX@Z 5f722eb3 f   daocore.obj
 0001:00021f20       ?SetDirtyFields@CDaoRecordset@@MAEXXZ 5f722f20 f   daocore.obj
 0001:00021f70       ?SetCursorAttributes@CDaoRecordset@@QAEXXZ 5f722f70 f   daocore.obj
 0001:00021fef       ?GetDataAndFixupNulls@CDaoRecordset@@QAEXXZ 5f722fef f   daocore.obj
 0001:000220f4       ?IsFieldStatusDirty@CDaoRecordset@@QAEHI@Z 5f7230f4 f   daocore.obj
 0001:0002212f       ?SetDirtyFieldStatus@CDaoRecordset@@QAEXI@Z 5f72312f f   daocore.obj
 0001:0002216a       ?ClearDirtyFieldStatus@CDaoRecordset@@QAEXI@Z 5f72316a f   daocore.obj
 0001:000221a5       ?IsFieldStatusNull@CDaoRecordset@@QAEHI@Z 5f7231a5 f   daocore.obj
 0001:000221de       ?SetNullFieldStatus@CDaoRecordset@@QAEXI@Z 5f7231de f   daocore.obj
 0001:00022219       ?ClearNullFieldStatus@CDaoRecordset@@QAEXI@Z 5f723219 f   daocore.obj
 0001:00022254       ?IsFieldStatusNullable@CDaoRecordset@@QAEHI@Z 5f723254 f   daocore.obj
 0001:0002228d       ?SetNullableFieldStatus@CDaoRecordset@@QAEXI@Z 5f72328d f   daocore.obj
 0001:000222c8       ?IsFieldStatusNullableKnown@CDaoRecordset@@QAEHI@Z 5f7232c8 f   daocore.obj
 0001:00022301       ?SetNullableKnownFieldStatus@CDaoRecordset@@QAEXI@Z 5f723301 f   daocore.obj
 0001:0002233c       ?ClearFieldStatusFlags@CDaoRecordset@@QAEXXZ 5f72333c f   daocore.obj
 0001:00022372       ?IsMatch@CDaoRecordset@@QAEHXZ 5f723372 f   daocore.obj
 0001:000223f6       ?StripBrackets@CDaoRecordset@@SAXPBDPAD@Z 5f7233f6 f   daocore.obj
 0001:00022499       ?ThrowDaoException@CDaoRecordset@@MAEXH@Z 5f723499 f   daocore.obj
 0001:000224c4       ?AssertValid@CDaoRecordset@@UBEXXZ 5f7234c4 f   daocore.obj
 0001:000224d7       ?Dump@CDaoRecordset@@UBEXAAVCDumpContext@@@Z 5f7234d7 f   daocore.obj
 0001:000226e6       ?AfxGetFieldInfo@@YAXPAU_DAOField@@AAUCDaoFieldInfo@@K@Z 5f7236e6 f   daocore.obj
 0001:00022b18       ?AfxSetFieldInfo@@YAXPAU_DAOField@@AAUCDaoFieldInfo@@@Z 5f723b18 f   daocore.obj
 0001:00022d8b       ?AfxGetDefaultValue@@YAXPAU_DAOField@@AAVCString@@@Z 5f723d8b f   daocore.obj
 0001:00022e6d       ?AfxSetDefaultValue@@YAXPAU_DAOField@@AAVCString@@@Z 5f723e6d f   daocore.obj
 0001:00022f70       ?AfxGetIndexInfo@@YAXPAU_DAOIndex@@AAUCDaoIndexInfo@@K@Z 5f723f70 f   daocore.obj
 0001:00023203       ?AfxSetIndexInfo@@YAXPAU_DAOIndex@@AAUCDaoIndexInfo@@@Z 5f724203 f   daocore.obj
 0001:0002332e       ?AfxGetIndexFields@@YAXPAU_DAOIndex@@PAPAUDAOIndexFields@@@Z 5f72432e f   daocore.obj
 0001:0002343d       ?AfxGetIndexFieldInfo@@YAXPAU_DAOIndex@@AAUCDaoIndexInfo@@@Z 5f72443d f   daocore.obj
 0001:0002385d       ?AfxSetIndexFieldInfo@@YAXPAU_DAOIndex@@AAUCDaoIndexInfo@@@Z 5f72485d f   daocore.obj
 0001:00023ab5       ?ThrowGetRowsDaoException@@YAXJ@Z 5f724ab5 f   daocore.obj
 0001:00023c75       ?AfxGetDaoState@@YAPAV_AFX_DAO_STATE@@XZ 5f724c75 f   daocore.obj
 0001:00023cdc       ?AfxDaoInit@@YGXXZ         5f724cdc f   daocore.obj
 0001:00023f27       ?AfxDaoGetEngine@@YGPAU_DAODBEngine@@XZ 5f724f27 f   daocore.obj
 0001:00023f34       ?AfxDaoTerm@@YGXXZ         5f724f34 f   daocore.obj
 0001:00023fe7       ?IsOpen@CDaoWorkspace@@QBEHXZ 5f724fe7 f   daocore.obj
 0001:00024008       ?IsNew@CDaoWorkspace@@QBEHXZ 5f725008 f   daocore.obj
 0001:00024029       ?IsOpen@CDaoDatabase@@QBEHXZ 5f725029 f   daocore.obj
 0001:0002404a       ?IsOpen@CDaoTableDef@@QBEHXZ 5f72504a f   daocore.obj
 0001:0002406b       ?IsOpen@CDaoQueryDef@@QBEHXZ 5f72506b f   daocore.obj
 0001:0002408c       ?IsOpen@CDaoRecordset@@QBEHXZ 5f72508c f   daocore.obj
 0001:000240b0       ??_E_AFX_DAO_STATE@@UAEPAXI@Z 5f7250b0 f i daocore.obj
 0001:000240b0       ??_G_AFX_DAO_STATE@@UAEPAXI@Z 5f7250b0 f i daocore.obj
 0001:000240e0       ??0AFX_INITOPTIONALVARIANT@@QAE@XZ 5f7250e0 f i daocore.obj
 0001:00024110       ??0AFX_INITNULLVARIANT@@QAE@XZ 5f725110 f i daocore.obj
 0001:00024130       ??_GCDaoIndexInfo@@UAEPAXI@Z 5f725130 f i daocore.obj
 0001:00024130       ??_ECDaoIndexInfo@@UAEPAXI@Z 5f725130 f i daocore.obj
 0001:00024160       ??_ECDaoIndexFieldInfo@@QAEPAXI@Z 5f725160 f i daocore.obj
 0001:000241c0       ??1CDaoIndexFieldInfo@@QAE@XZ 5f7251c0 f i daocore.obj
 0001:000241e0       ??_ECDaoRelationInfo@@UAEPAXI@Z 5f7251e0 f i daocore.obj
 0001:000241e0       ??_GCDaoRelationInfo@@UAEPAXI@Z 5f7251e0 f i daocore.obj
 0001:00024210       ??_ECDaoRelationFieldInfo@@QAEPAXI@Z 5f725210 f i daocore.obj
 0001:00024270       ??1CDaoRelationFieldInfo@@QAE@XZ 5f725270 f i daocore.obj
 0001:000242c0       ??_GCDaoErrorInfo@@QAEPAXI@Z 5f7252c0 f i daocore.obj
 0001:000242f0       ??1CDaoErrorInfo@@QAE@XZ   5f7252f0 f i daocore.obj
 0001:00024350       ??0CDaoErrorInfo@@QAE@XZ   5f725350 f i daocore.obj
 0001:000243c0       ??0CDaoRelationFieldInfo@@QAE@XZ 5f7253c0 f i daocore.obj
 0001:00024420       ??_GCDaoTableDef@@UAEPAXI@Z 5f725420 f i daocore.obj
 0001:00024420       ??_ECDaoTableDef@@UAEPAXI@Z 5f725420 f i daocore.obj
 0001:00024450       ??0CDaoFieldInfo@@QAE@XZ   5f725450 f i daocore.obj
 0001:00024500       ??1CDaoFieldInfo@@QAE@XZ   5f725500 f i daocore.obj
 0001:000245a0       ??_GCDaoQueryDef@@UAEPAXI@Z 5f7255a0 f i daocore.obj
 0001:000245a0       ??_ECDaoQueryDef@@UAEPAXI@Z 5f7255a0 f i daocore.obj
 0001:000245d0       ??0CDaoIndexFieldInfo@@QAE@XZ 5f7255d0 f i daocore.obj
 0001:00024600       ??_9@$BEM@AG               5f725600 f i daocore.obj
 0001:00024610       ??_9@$BHE@AG               5f725610 f i daocore.obj
 0001:00024620       ??_9@$BHI@AG               5f725620 f i daocore.obj
 0001:00024630       ??0CDaoFieldExchange@@QAE@IPAVCDaoRecordset@@PAX@Z 5f725630 f   daodfx.obj
 0001:0002469b       ?IsValidOperation@CDaoFieldExchange@@QAEHXZ 5f72569b f   daodfx.obj
 0001:00024719       ?AppendParamType@CDaoFieldExchange@@SGXAAVCString@@K@Z 5f725719 f   daodfx.obj
 0001:0002484a       ?GetCacheValue@CDaoFieldExchange@@SGPAUCDaoFieldCache@@PAVCDaoRecordset@@PAX@Z 5f72584a f   daodfx.obj
 0001:0002487a       ?SetNullValue@CDaoFieldExchange@@SGXPAXK@Z 5f72587a f   daodfx.obj
 0001:0002498a       ?IsNullValue@CDaoFieldExchange@@SGHPAXK@Z 5f72598a f   daodfx.obj
 0001:00024b20       ?AllocCacheValue@CDaoFieldExchange@@SGXAAPAUCDaoFieldCache@@K@Z 5f725b20 f   daodfx.obj
 0001:00024d97       ?DeleteCacheValue@CDaoFieldExchange@@SGXPAUCDaoFieldCache@@K@Z 5f725d97 f   daodfx.obj
 0001:00024f0c       ?CopyValue@CDaoFieldExchange@@SGXPAX0K@Z 5f725f0c f   daodfx.obj
 0001:000250a3       ?CompareValue@CDaoFieldExchange@@SGHPAX0K@Z 5f7260a3 f   daodfx.obj
 0001:000252f9       ?FillVariant@CDaoFieldExchange@@SGXPAXKPAPAVCOleVariant@@@Z 5f7262f9 f   daodfx.obj
 0001:000254e3       ?Default@CDaoFieldExchange@@QAEXPBDPAXKK@Z 5f7264e3 f   daodfx.obj
 0001:00025cb4       ?DFX_Text@@YGXPAVCDaoFieldExchange@@PBDAAVCString@@HK@Z 5f726cb4 f   daodfx.obj
 0001:00025e52       ?DFX_Binary@@YGXPAVCDaoFieldExchange@@PBDAAVCByteArray@@HK@Z 5f726e52 f   daodfx.obj
 0001:00025f63       ?DFX_LongBinary@@YGXPAVCDaoFieldExchange@@PBDAAVCLongBinary@@KK@Z 5f726f63 f   daodfx.obj
 0001:000260ae       ?DFX_Bool@@YGXPAVCDaoFieldExchange@@PBDAAHK@Z 5f7270ae f   daodfx.obj
 0001:0002620a       ?DFX_Byte@@YGXPAVCDaoFieldExchange@@PBDAAEK@Z 5f72720a f   daodfx.obj
 0001:00026330       ?DFX_Short@@YGXPAVCDaoFieldExchange@@PBDAAFK@Z 5f727330 f   daodfx.obj
 0001:00026457       ?DFX_Long@@YGXPAVCDaoFieldExchange@@PBDAAJK@Z 5f727457 f   daodfx.obj
 0001:0002657d       ?DFX_Currency@@YGXPAVCDaoFieldExchange@@PBDAAVCOleCurrency@@K@Z 5f72757d f   daodfx.obj
 0001:000266fd       ?DFX_Single@@YGXPAVCDaoFieldExchange@@PBDAAMK@Z 5f7276fd f   daodfx.obj
 0001:00026823       ?DFX_Double@@YGXPAVCDaoFieldExchange@@PBDAANK@Z 5f727823 f   daodfx.obj
 0001:00026944       ?DFX_DateTime@@YGXPAVCDaoFieldExchange@@PBDAAVCOleDateTime@@K@Z 5f727944 f   daodfx.obj
 0001:00026ac4       _DaoStringAllocCallback@12 5f727ac4 f   daodfx.obj
 0001:00026b8b       _DaoBinaryAllocCallback@12 5f727b8b f   daodfx.obj
 0001:00026c51       _DaoLongBinaryAllocCallback@12 5f727c51 f   daodfx.obj
 0001:00026d4a       ?AllocLongBinary@@YAXAAVCLongBinary@@K@Z 5f727d4a f   daodfx.obj
 0001:00026dd4       ?SetFieldType@CDaoFieldExchange@@QAEXI@Z 5f727dd4 f   daodfx.obj
 0001:00026e20       ??_GCOleVariant@@QAEPAXI@Z 5f727e20 f i daodfx.obj
 0001:00026e50       ?_GetBaseClass@CDaoRecordView@@KGPAUCRuntimeClass@@XZ 5f727e50 f   daoview.obj
 0001:00026e5a       ?GetRuntimeClass@CDaoRecordView@@UBEPAUCRuntimeClass@@XZ 5f727e5a f   daoview.obj
 0001:00026e6a       ?_GetBaseMessageMap@CDaoRecordView@@KGPBUAFX_MSGMAP@@XZ 5f727e6a f   daoview.obj
 0001:00026e74       ?GetMessageMap@CDaoRecordView@@MBEPBUAFX_MSGMAP@@XZ 5f727e74 f   daoview.obj
 0001:00026e84       ??0CDaoRecordView@@IAE@PBD@Z 5f727e84 f   daoview.obj
 0001:00026f48       ??0CDaoRecordView@@IAE@I@Z 5f727f48 f   daoview.obj
 0001:0002700c       ??1CDaoRecordView@@UAE@XZ  5f72800c f   daoview.obj
 0001:00027087       ?OnInitialUpdate@CDaoRecordView@@UAEXXZ 5f728087 f   daoview.obj
 0001:00027262       ?OnMove@CDaoRecordView@@UAEHI@Z 5f728262 f   daoview.obj
 0001:000277b4       ?IsOnFirstRecord@CDaoRecordView@@QAEHXZ 5f7287b4 f   daoview.obj
 0001:000277ea       ?IsOnLastRecord@CDaoRecordView@@QAEHXZ 5f7287ea f   daoview.obj
 0001:00027820       ?AfxFieldText@@YGHPAVCDataExchange@@HPAXPAVCDaoRecordset@@@Z 5f728820 f   daoview.obj
 0001:00027905       ?DDX_FieldText@@YGXPAVCDataExchange@@HAAHPAVCDaoRecordset@@@Z 5f728905 f   daoview.obj
 0001:00027936       ?DDX_FieldText@@YGXPAVCDataExchange@@HAAEPAVCDaoRecordset@@@Z 5f728936 f   daoview.obj
 0001:00027967       ?DDX_FieldText@@YGXPAVCDataExchange@@HAAFPAVCDaoRecordset@@@Z 5f728967 f   daoview.obj
 0001:00027998       ?DDX_FieldText@@YGXPAVCDataExchange@@HAAJPAVCDaoRecordset@@@Z 5f728998 f   daoview.obj
 0001:000279c9       ?DDX_FieldText@@YGXPAVCDataExchange@@HAAKPAVCDaoRecordset@@@Z 5f7289c9 f   daoview.obj
 0001:000279fa       ?DDX_FieldText@@YGXPAVCDataExchange@@HAAVCOleCurrency@@PAVCDaoRecordset@@@Z 5f7289fa f   daoview.obj
 0001:00027a2b       ?DDX_FieldText@@YGXPAVCDataExchange@@HAAMPAVCDaoRecordset@@@Z 5f728a2b f   daoview.obj
 0001:00027a5c       ?DDX_FieldText@@YGXPAVCDataExchange@@HAANPAVCDaoRecordset@@@Z 5f728a5c f   daoview.obj
 0001:00027a8d       ?DDX_FieldText@@YGXPAVCDataExchange@@HAAVCOleDateTime@@PAVCDaoRecordset@@@Z 5f728a8d f   daoview.obj
 0001:00027abe       ?DDX_FieldText@@YGXPAVCDataExchange@@HAAVCString@@PAVCDaoRecordset@@@Z 5f728abe f   daoview.obj
 0001:00027aef       ?DDX_FieldLBString@@YGXPAVCDataExchange@@HAAVCString@@PAVCDaoRecordset@@@Z 5f728aef f   daoview.obj
 0001:00027c49       ?DDX_FieldLBStringExact@@YGXPAVCDataExchange@@HAAVCString@@PAVCDaoRecordset@@@Z 5f728c49 f   daoview.obj
 0001:00027d13       ?DDX_FieldCBString@@YGXPAVCDataExchange@@HAAVCString@@PAVCDaoRecordset@@@Z 5f728d13 f   daoview.obj
 0001:00027e61       ?DDX_FieldCBStringExact@@YGXPAVCDataExchange@@HAAVCString@@PAVCDaoRecordset@@@Z 5f728e61 f   daoview.obj
 0001:00027f2b       ?DDX_FieldLBIndex@@YGXPAVCDataExchange@@HAAHPAVCDaoRecordset@@@Z 5f728f2b f   daoview.obj
 0001:00027f97       ?DDX_FieldCBIndex@@YGXPAVCDataExchange@@HAAHPAVCDaoRecordset@@@Z 5f728f97 f   daoview.obj
 0001:00028003       ?DDX_FieldScroll@@YGXPAVCDataExchange@@HAAHPAVCDaoRecordset@@@Z 5f729003 f   daoview.obj
 0001:0002806f       ?DDX_FieldCheck@@YGXPAVCDataExchange@@HAAHPAVCDaoRecordset@@@Z 5f72906f f   daoview.obj
 0001:000281dc       ?DDX_FieldRadio@@YGXPAVCDataExchange@@HAAHPAVCDaoRecordset@@@Z 5f7291dc f   daoview.obj
 0001:00028277       ?AssertValid@CDaoRecordView@@UBEXXZ 5f729277 f   daoview.obj
 0001:0002828a       ?Dump@CDaoRecordView@@UBEXAAVCDumpContext@@@Z 5f72928a f   daoview.obj
 0001:000283cb       ?OnUpdateRecordFirst@CDaoRecordView@@IAEXPAVCCmdUI@@@Z 5f7293cb f   daoview.obj
 0001:000283ff       ?OnUpdateRecordNext@CDaoRecordView@@IAEXPAVCCmdUI@@@Z 5f7293ff f   daoview.obj
 0001:00028433       ?OnUpdateRecordPrev@CDaoRecordView@@IAEXPAVCCmdUI@@@Z 5f729433 f   daoview.obj
 0001:00028467       ?OnUpdateRecordLast@CDaoRecordView@@IAEXPAVCCmdUI@@@Z 5f729467 f   daoview.obj
 0001:0002849b       ?OnMove@CDaoRecordView@@IAEXHH@Z 5f72949b f   daoview.obj
 0001:000284c0       ??_ECDaoRecordView@@UAEPAXI@Z 5f7294c0 f i daoview.obj
 0001:000284c0       ??_GCDaoRecordView@@UAEPAXI@Z 5f7294c0 f i daoview.obj
 0001:000284ec       ?AfxGetModuleState@@YGPAVAFX_MODULE_STATE@@XZ 5f7294ec f   MFC42D:MFC42D.DLL
 0001:000284f2       ??3CObject@@SGXPAX@Z       5f7294f2 f   MFC42D:MFC42D.DLL
 0001:000284f8       ?AfxTermThread@@YGXPAUHINSTANCE__@@@Z 5f7294f8 f   MFC42D:MFC42D.DLL
 0001:000284fe       ?AfxTermExtensionModule@@YGXAAUAFX_EXTENSION_MODULE@@H@Z 5f7294fe f   MFC42D:MFC42D.DLL
 0001:00028504       ??0CDynLinkLibrary@@QAE@AAUAFX_EXTENSION_MODULE@@H@Z 5f729504 f   MFC42D:MFC42D.DLL
 0001:0002850a       ??2CObject@@SGPAXI@Z       5f72950a f   MFC42D:MFC42D.DLL
 0001:00028510       ?AfxAssertFailedLine@@YGHPBDH@Z 5f729510 f   MFC42D:MFC42D.DLL
 0001:00028516       ?AfxInitExtensionModule@@YGHAAUAFX_EXTENSION_MODULE@@PAUHINSTANCE__@@@Z 5f729516 f   MFC42D:MFC42D.DLL
 0001:0002851c       ?AfxGetAppModuleState@@YGPAVAFX_MODULE_STATE@@XZ 5f72951c f   MFC42D:MFC42D.DLL
 0001:00028522       ??3@YAXPAX@Z               5f729522 f   MFC42D:MFC42D.DLL
 0001:00028528       ??2@YAPAXI@Z               5f729528 f   MFC42D:MFC42D.DLL
 0001:0002852e       ??3CException@@SGXPAX@Z    5f72952e f   MFC42D:MFC42D.DLL
 0001:00028534       ?AfxTrace@@YAXPBDZZ        5f729534 f   MFC42D:MFC42D.DLL
 0001:0002853a       ?IsKindOf@CObject@@QBEHPBUCRuntimeClass@@@Z 5f72953a f   MFC42D:MFC42D.DLL
 0001:00028540       ?AfxLoadDll@@YGPAUHINSTANCE__@@RAPAU1@PBD@Z 5f729540 f   MFC42D:MFC42D.DLL
 0001:00028546       ??3CNoTrackObject@@SGXPAX@Z 5f729546 f   MFC42D:MFC42D.DLL
 0001:0002854c       ?LoadStringA@CString@@QAEHI@Z 5f72954c f   MFC42D:MFC42D.DLL
 0001:00028552       ??2CObject@@SGPAXIPBDH@Z   5f729552 f   MFC42D:MFC42D.DLL
 0001:00028558       ?ReportError@CException@@UAEHII@Z 5f729558 f   MFC42D:MFC42D.DLL
 0001:0002855e       ?Dump@CObject@@UBEXAAVCDumpContext@@@Z 5f72955e f   MFC42D:MFC42D.DLL
 0001:00028564       ?AssertValid@CObject@@UBEXXZ 5f729564 f   MFC42D:MFC42D.DLL
 0001:0002856a       ?Serialize@CObject@@UAEXAAVCArchive@@@Z 5f72956a f   MFC42D:MFC42D.DLL
 0001:00028570       ??1CString@@QAE@XZ         5f729570 f   MFC42D:MFC42D.DLL
 0001:00028576       ??1CException@@UAE@XZ      5f729576 f   MFC42D:MFC42D.DLL
 0001:0002857c       ??0CString@@QAE@XZ         5f72957c f   MFC42D:MFC42D.DLL
 0001:00028582       ??0CException@@QAE@XZ      5f729582 f   MFC42D:MFC42D.DLL
 0001:00028588       ??H@YG?AVCString@@ABV0@PBD@Z 5f729588 f   MFC42D:MFC42D.DLL
 0001:0002858e       ??H@YG?AVCString@@PBDABV0@@Z 5f72958e f   MFC42D:MFC42D.DLL
 0001:00028594       ??4CString@@QAEABV0@ABV0@@Z 5f729594 f   MFC42D:MFC42D.DLL
 0001:0002859a       ?Right@CString@@QBE?AV1@H@Z 5f72959a f   MFC42D:MFC42D.DLL
 0001:000285a0       ?GetLength@CString@@QBEHXZ 5f7295a0 f   MFC42D:MFC42D.DLL
 0001:000285a6       ??YCString@@QAEABV0@ABV0@@Z 5f7295a6 f   MFC42D:MFC42D.DLL
 0001:000285ac       ?Left@CString@@QBE?AV1@H@Z 5f7295ac f   MFC42D:MFC42D.DLL
 0001:000285b2       ?Find@CString@@QBEHD@Z     5f7295b2 f   MFC42D:MFC42D.DLL
 0001:000285b8       ??ACString@@QBEDH@Z        5f7295b8 f   MFC42D:MFC42D.DLL
 0001:000285be       ?IsEmpty@CString@@QBEHXZ   5f7295be f   MFC42D:MFC42D.DLL
 0001:000285c4       ??YCString@@QAEABV0@PBD@Z  5f7295c4 f   MFC42D:MFC42D.DLL
 0001:000285ca       ??BCString@@QBEPBDXZ       5f7295ca f   MFC42D:MFC42D.DLL
 0001:000285d0       ??4CString@@QAEABV0@PBE@Z  5f7295d0 f   MFC42D:MFC42D.DLL
 0001:000285d6       ?AfxAssertValidObject@@YGXPBVCObject@@PBDH@Z 5f7295d6 f   MFC42D:MFC42D.DLL
 0001:000285dc       ?AfxIsValidString@@YGHPBDH@Z 5f7295dc f   MFC42D:MFC42D.DLL
 0001:000285e2       ??0CString@@QAE@PBD@Z      5f7295e2 f   MFC42D:MFC42D.DLL
 0001:000285e8       ?Empty@CString@@QAEXXZ     5f7295e8 f   MFC42D:MFC42D.DLL
 0001:000285ee       ??1CObject@@UAE@XZ         5f7295ee f   MFC42D:MFC42D.DLL
 0001:000285f4       ??0CPtrList@@QAE@H@Z       5f7295f4 f   MFC42D:MFC42D.DLL
 0001:000285fa       ??0CObject@@IAE@XZ         5f7295fa f   MFC42D:MFC42D.DLL
 0001:00028600       ??1CPtrList@@UAE@XZ        5f729600 f   MFC42D:MFC42D.DLL
 0001:00028606       ??4CString@@QAEABV0@PBD@Z  5f729606 f   MFC42D:MFC42D.DLL
 0001:0002860c       ?AfxUnlockGlobals@@YGXH@Z  5f72960c f   MFC42D:MFC42D.DLL
 0001:00028612       ?GetHead@CPtrList@@QAEAAPAXXZ 5f729612 f   MFC42D:MFC42D.DLL
 0001:00028618       ?IsEmpty@CPtrList@@QBEHXZ  5f729618 f   MFC42D:MFC42D.DLL
 0001:0002861e       ?AfxLockGlobals@@YGXH@Z    5f72961e f   MFC42D:MFC42D.DLL
 0001:00028624       ?Delete@CException@@QAEXXZ 5f729624 f   MFC42D:MFC42D.DLL
 0001:0002862a       ?AfxThrowMemoryException@@YGXXZ 5f72962a f   MFC42D:MFC42D.DLL
 0001:00028630       ?GetDesktopWindow@CWnd@@SGPAV1@XZ 5f729630 f   MFC42D:MFC42D.DLL
 0001:00028636       ?GetSafeOwner@CWnd@@SGPAV1@PAV1@PAPAUHWND__@@@Z 5f729636 f   MFC42D:MFC42D.DLL
 0001:0002863c       ?GetDepth@CDumpContext@@QBEHXZ 5f72963c f   MFC42D:MFC42D.DLL
 0001:00028642       ??6CDumpContext@@QAEAAV0@K@Z 5f729642 f   MFC42D:MFC42D.DLL
 0001:00028648       ??6CDumpContext@@QAEAAV0@H@Z 5f729648 f   MFC42D:MFC42D.DLL
 0001:0002864e       ??6@YGAAVCDumpContext@@AAV0@ABVCString@@@Z 5f72964e f   MFC42D:MFC42D.DLL
 0001:00028654       ??6CDumpContext@@QAEAAV0@PBX@Z 5f729654 f   MFC42D:MFC42D.DLL
 0001:0002865a       ??6CDumpContext@@QAEAAV0@PBD@Z 5f72965a f   MFC42D:MFC42D.DLL
 0001:00028660       ??1CMapPtrToPtr@@UAE@XZ    5f729660 f   MFC42D:MFC42D.DLL
 0001:00028666       ?AddHead@CPtrList@@QAEPAU__POSITION@@PAX@Z 5f729666 f   MFC42D:MFC42D.DLL
 0001:0002866c       ?AfxIsValidAddress@@YGHPBXIH@Z 5f72966c f   MFC42D:MFC42D.DLL
 0001:00028672       ??0CMapPtrToPtr@@QAE@H@Z   5f729672 f   MFC42D:MFC42D.DLL
 0001:00028678       ?RemoveAt@CPtrList@@QAEXPAU__POSITION@@@Z 5f729678 f   MFC42D:MFC42D.DLL
 0001:0002867e       ?Find@CPtrList@@QBEPAU__POSITION@@PAXPAU2@@Z 5f72967e f   MFC42D:MFC42D.DLL
 0001:00028684       ?Find@CString@@QBEHPBD@Z   5f729684 f   MFC42D:MFC42D.DLL
 0001:0002868a       ??2@YAPAXIPBDH@Z           5f72968a f   MFC42D:MFC42D.DLL
 0001:00028690       ?GetBufferSetLength@CString@@QAEPADH@Z 5f729690 f   MFC42D:MFC42D.DLL
 0001:00028696       ??9@YG_NABVCString@@0@Z    5f729696 f   MFC42D:MFC42D.DLL
 0001:0002869c       ?ReleaseBuffer@CString@@QAEXH@Z 5f72969c f   MFC42D:MFC42D.DLL
 0001:000286a2       ?GetBuffer@CString@@QAEPADH@Z 5f7296a2 f   MFC42D:MFC42D.DLL
 0001:000286a8       ?MakeUpper@CString@@QAEXXZ 5f7296a8 f   MFC42D:MFC42D.DLL
 0001:000286ae       ?SetAt@CString@@QAEXHD@Z   5f7296ae f   MFC42D:MFC42D.DLL
 0001:000286b4       ?Lookup@CMapPtrToPtr@@QBEHPAXAAPAX@Z 5f7296b4 f   MFC42D:MFC42D.DLL
 0001:000286ba       ??8@YG_NABVCString@@PBD@Z  5f7296ba f   MFC42D:MFC42D.DLL
 0001:000286c0       ??6CDumpContext@@QAEAAV0@PBVCObject@@@Z 5f7296c0 f   MFC42D:MFC42D.DLL
 0001:000286c6       ??6CDumpContext@@QAEAAV0@J@Z 5f7296c6 f   MFC42D:MFC42D.DLL
 0001:000286cc       ??6CDumpContext@@QAEAAV0@I@Z 5f7296cc f   MFC42D:MFC42D.DLL
 0001:000286d2       ??1CProcessLocalObject@@QAE@XZ 5f7296d2 f   MFC42D:MFC42D.DLL
 0001:000286d8       ?GetData@CProcessLocalObject@@QAEPAVCNoTrackObject@@P6GPAV2@XZ@Z 5f7296d8 f   MFC42D:MFC42D.DLL
 0001:000286de       ??2CNoTrackObject@@SGPAXI@Z 5f7296de f   MFC42D:MFC42D.DLL
 0001:000286e4       ?GetData@CByteArray@@QAEPAEXZ 5f7296e4 f   MFC42D:MFC42D.DLL
 0001:000286ea       ??YCString@@QAEABV0@D@Z    5f7296ea f   MFC42D:MFC42D.DLL
 0001:000286f0       ?SetAt@CMapPtrToPtr@@QAEXPAX0@Z 5f7296f0 f   MFC42D:MFC42D.DLL
 0001:000286f6       ?LockBuffer@CString@@QAEPADXZ 5f7296f6 f   MFC42D:MFC42D.DLL
 0001:000286fc       ??6CDumpContext@@QAEAAV0@E@Z 5f7296fc f   MFC42D:MFC42D.DLL
 0001:00028702       ??0CByteArray@@QAE@XZ      5f729702 f   MFC42D:MFC42D.DLL
 0001:00028708       ?SetSize@CByteArray@@QAEXHH@Z 5f729708 f   MFC42D:MFC42D.DLL
 0001:0002870e       ??ACByteArray@@QAEAAEH@Z   5f72970e f   MFC42D:MFC42D.DLL
 0001:00028714       ?GetSize@CByteArray@@QBEHXZ 5f729714 f   MFC42D:MFC42D.DLL
 0001:0002871a       ??6@YGAAVCDumpContext@@AAV0@VCTime@@@Z 5f72971a f   MFC42D:MFC42D.DLL
 0001:00028720       ??0CTime@@QAE@XZ           5f729720 f   MFC42D:MFC42D.DLL
 0001:00028726       ??9CTime@@QBEHV0@@Z        5f729726 f   MFC42D:MFC42D.DLL
 0001:0002872c       ??0CTime@@QAE@ABV0@@Z      5f72972c f   MFC42D:MFC42D.DLL
 0001:00028732       ??0CTime@@QAE@HHHHHHH@Z    5f729732 f   MFC42D:MFC42D.DLL
 0001:00028738       ??4CTime@@QAEABV0@ABV0@@Z  5f729738 f   MFC42D:MFC42D.DLL
 0001:0002873e       ??0CTime@@QAE@J@Z          5f72973e f   MFC42D:MFC42D.DLL
 0001:00028744       ?GetSecond@CTime@@QBEHXZ   5f729744 f   MFC42D:MFC42D.DLL
 0001:0002874a       ?GetMinute@CTime@@QBEHXZ   5f72974a f   MFC42D:MFC42D.DLL
 0001:00028750       ?GetHour@CTime@@QBEHXZ     5f729750 f   MFC42D:MFC42D.DLL
 0001:00028756       ?GetDay@CTime@@QBEHXZ      5f729756 f   MFC42D:MFC42D.DLL
 0001:0002875c       ?GetMonth@CTime@@QBEHXZ    5f72975c f   MFC42D:MFC42D.DLL
 0001:00028762       ?GetYear@CTime@@QBEHXZ     5f729762 f   MFC42D:MFC42D.DLL
 0001:00028768       ??6CDumpContext@@QAEAAV0@G@Z 5f729768 f   MFC42D:MFC42D.DLL
 0001:0002876e       ??8CTime@@QBEHV0@@Z        5f72976e f   MFC42D:MFC42D.DLL
 0001:00028774       ??8@YG_NABVCString@@0@Z    5f729774 f   MFC42D:MFC42D.DLL
 0001:0002877a       ?Copy@CByteArray@@QAEXABV1@@Z 5f72977a f   MFC42D:MFC42D.DLL
 0001:00028780       ?OnEndPrintPreview@CView@@MAEXPAVCDC@@PAUCPrintInfo@@UtagPOINT@@PAVCPreviewView@@@Z 5f729780 f   MFC42D:MFC42D.DLL
 0001:00028786       ?OnEndPrinting@CView@@MAEXPAVCDC@@PAUCPrintInfo@@@Z 5f729786 f   MFC42D:MFC42D.DLL
 0001:0002878c       ?OnPrint@CView@@MAEXPAVCDC@@PAUCPrintInfo@@@Z 5f72978c f   MFC42D:MFC42D.DLL
 0001:00028792       ?OnBeginPrinting@CView@@MAEXPAVCDC@@PAUCPrintInfo@@@Z 5f729792 f   MFC42D:MFC42D.DLL
 0001:00028798       ?OnPreparePrinting@CView@@MAEHPAUCPrintInfo@@@Z 5f729798 f   MFC42D:MFC42D.DLL
 0001:0002879e       ?OnDraw@CFormView@@MAEXPAVCDC@@@Z 5f72979e f   MFC42D:MFC42D.DLL
 0001:000287a4       ?OnUpdate@CView@@MAEXPAV1@JPAVCObject@@@Z 5f7297a4 f   MFC42D:MFC42D.DLL
 0001:000287aa       ?OnActivateFrame@CFormView@@MAEXIPAVCFrameWnd@@@Z 5f7297aa f   MFC42D:MFC42D.DLL
 0001:000287b0       ?OnActivateView@CFormView@@MAEXHPAVCView@@0@Z 5f7297b0 f   MFC42D:MFC42D.DLL
 0001:000287b6       ?OnPrepareDC@CScrollView@@UAEXPAVCDC@@PAUCPrintInfo@@@Z 5f7297b6 f   MFC42D:MFC42D.DLL
 0001:000287bc       ?OnDragScroll@CView@@UAEKKVCPoint@@@Z 5f7297bc f   MFC42D:MFC42D.DLL
 0001:000287c2       ?OnDropEx@CView@@UAEKPAVCOleDataObject@@KKVCPoint@@@Z 5f7297c2 f   MFC42D:MFC42D.DLL
 0001:000287c8       ?OnDrop@CView@@UAEHPAVCOleDataObject@@KVCPoint@@@Z 5f7297c8 f   MFC42D:MFC42D.DLL
 0001:000287ce       ?OnDragLeave@CView@@UAEXXZ 5f7297ce f   MFC42D:MFC42D.DLL
 0001:000287d4       ?OnDragOver@CView@@UAEKPAVCOleDataObject@@KVCPoint@@@Z 5f7297d4 f   MFC42D:MFC42D.DLL
 0001:000287da       ?OnDragEnter@CView@@UAEKPAVCOleDataObject@@KVCPoint@@@Z 5f7297da f   MFC42D:MFC42D.DLL
 0001:000287e0       ?OnScrollBy@CScrollView@@UAEHVCSize@@H@Z 5f7297e0 f   MFC42D:MFC42D.DLL
 0001:000287e6       ?OnScroll@CScrollView@@UAEHIIH@Z 5f7297e6 f   MFC42D:MFC42D.DLL
 0001:000287ec       ?IsSelected@CView@@UBEHPBVCObject@@@Z 5f7297ec f   MFC42D:MFC42D.DLL
 0001:000287f2       ?SetOccDialogInfo@CFormView@@MAEHPAU_AFX_OCC_DIALOG_INFO@@@Z 5f7297f2 f   MFC42D:MFC42D.DLL
 0001:000287f8       ?IsFrameWnd@CWnd@@UBEHXZ   5f7297f8 f   MFC42D:MFC42D.DLL
 0001:000287fe       ?CheckAutoCenter@CWnd@@UAEHXZ 5f7297fe f   MFC42D:MFC42D.DLL
 0001:00028804       ?OnChildNotify@CWnd@@MAEHIIJPAJ@Z 5f729804 f   MFC42D:MFC42D.DLL
 0001:0002880a       ?PostNcDestroy@CView@@MAEXXZ 5f72980a f   MFC42D:MFC42D.DLL
 0001:00028810       ?DefWindowProcA@CWnd@@MAEJIIJ@Z 5f729810 f   MFC42D:MFC42D.DLL
 0001:00028816       ?OnWndMsg@CWnd@@MAEHIIJPAJ@Z 5f729816 f   MFC42D:MFC42D.DLL
 0001:0002881c       ?WindowProc@CWnd@@MAEJIIJ@Z 5f72981c f   MFC42D:MFC42D.DLL
 0001:00028822       ?OnAmbientProperty@CWnd@@UAEHPAVCOleControlSite@@JPAUtagVARIANT@@@Z 5f729822 f   MFC42D:MFC42D.DLL
 0001:00028828       ?PreTranslateMessage@CFormView@@MAEHPAUtagMSG@@@Z 5f729828 f   MFC42D:MFC42D.DLL
 0001:0002882e       ?EndModalState@CWnd@@UAEXXZ 5f72982e f   MFC42D:MFC42D.DLL
 0001:00028834       ?BeginModalState@CWnd@@UAEXXZ 5f729834 f   MFC42D:MFC42D.DLL
 0001:0002883a       ?DoDataExchange@CWnd@@MAEXPAVCDataExchange@@@Z 5f72983a f   MFC42D:MFC42D.DLL
 0001:00028840       ?GetSuperWndProcAddr@CWnd@@MAEPAP6GJPAUHWND__@@IIJ@ZXZ 5f729840 f   MFC42D:MFC42D.DLL
 0001:00028846       ?OnNotify@CWnd@@MAEHIJPAJ@Z 5f729846 f   MFC42D:MFC42D.DLL
 0001:0002884c       ?OnCommand@CWnd@@MAEHIJ@Z  5f72984c f   MFC42D:MFC42D.DLL
 0001:00028852       ?EndModalLoop@CWnd@@UAEXH@Z 5f729852 f   MFC42D:MFC42D.DLL
 0001:00028858       ?ContinueModal@CWnd@@UAEHXZ 5f729858 f   MFC42D:MFC42D.DLL
 0001:0002885e       ?WinHelpA@CWnd@@UAEXKI@Z   5f72985e f   MFC42D:MFC42D.DLL
 0001:00028864       ?GetScrollBarCtrl@CView@@UBEPAVCScrollBar@@H@Z 5f729864 f   MFC42D:MFC42D.DLL
 0001:0002886a       ?OnToolHitTest@CWnd@@UBEHVCPoint@@PAUtagTOOLINFOA@@@Z 5f72986a f   MFC42D:MFC42D.DLL
 0001:00028870       ?CalcWindowRect@CScrollView@@UAEXPAUtagRECT@@I@Z 5f729870 f   MFC42D:MFC42D.DLL
 0001:00028876       ?PreCreateWindow@CView@@MAEHAAUtagCREATESTRUCTA@@@Z 5f729876 f   MFC42D:MFC42D.DLL
 0001:0002887c       ?DestroyWindow@CWnd@@UAEHXZ 5f72987c f   MFC42D:MFC42D.DLL
 0001:00028882       ?Create@CFormView@@MAEHPBD0KABUtagRECT@@PAVCWnd@@IPAUCCreateContext@@@Z 5f729882 f   MFC42D:MFC42D.DLL
 0001:00028888       ?PreSubclassWindow@CWnd@@UAEXXZ 5f729888 f   MFC42D:MFC42D.DLL
 0001:0002888e       ?GetConnectionHook@CCmdTarget@@MAEPAUIConnectionPoint@@ABU_GUID@@@Z 5f72988e f   MFC42D:MFC42D.DLL
 0001:00028894       ?GetExtraConnectionPoints@CCmdTarget@@MAEHPAVCPtrArray@@@Z 5f729894 f   MFC42D:MFC42D.DLL
 0001:0002889a       ?GetInterfaceHook@CCmdTarget@@UAEPAUIUnknown@@PBX@Z 5f72989a f   MFC42D:MFC42D.DLL
 0001:000288a0       ?OnCreateAggregates@CCmdTarget@@UAEHXZ 5f7298a0 f   MFC42D:MFC42D.DLL
 0001:000288a6       ?GetEventSinkMap@CCmdTarget@@MBEPBUAFX_EVENTSINKMAP@@XZ 5f7298a6 f   MFC42D:MFC42D.DLL
 0001:000288ac       ?GetInterfaceMap@CCmdTarget@@MBEPBUAFX_INTERFACEMAP@@XZ 5f7298ac f   MFC42D:MFC42D.DLL
 0001:000288b2       ?GetConnectionMap@CCmdTarget@@MBEPBUAFX_CONNECTIONMAP@@XZ 5f7298b2 f   MFC42D:MFC42D.DLL
 0001:000288b8       ?GetDispatchMap@CCmdTarget@@MBEPBUAFX_DISPMAP@@XZ 5f7298b8 f   MFC42D:MFC42D.DLL
 0001:000288be       ?GetCommandMap@CCmdTarget@@MBEPBUAFX_OLECMDMAP@@XZ 5f7298be f   MFC42D:MFC42D.DLL
 0001:000288c4       ?GetTypeLib@CCmdTarget@@UAEJKPAPAUITypeLib@@@Z 5f7298c4 f   MFC42D:MFC42D.DLL
 0001:000288ca       ?GetTypeLibCache@CCmdTarget@@UAEPAVCTypeLibCache@@XZ 5f7298ca f   MFC42D:MFC42D.DLL
 0001:000288d0       ?GetTypeInfoCount@CCmdTarget@@UAEIXZ 5f7298d0 f   MFC42D:MFC42D.DLL
 0001:000288d6       ?GetDispatchIID@CCmdTarget@@UAEHPAU_GUID@@@Z 5f7298d6 f   MFC42D:MFC42D.DLL
 0001:000288dc       ?IsInvokeAllowed@CCmdTarget@@UAEHJ@Z 5f7298dc f   MFC42D:MFC42D.DLL
 0001:000288e2       ?OnFinalRelease@CWnd@@UAEXXZ 5f7298e2 f   MFC42D:MFC42D.DLL
 0001:000288e8       ?OnCmdMsg@CView@@MAEHIHPAXPAUAFX_CMDHANDLERINFO@@@Z 5f7298e8 f   MFC42D:MFC42D.DLL
 0001:000288ee       ??0CFormView@@IAE@PBD@Z    5f7298ee f   MFC42D:MFC42D.DLL
 0001:000288f4       ??0CFormView@@IAE@I@Z      5f7298f4 f   MFC42D:MFC42D.DLL
 0001:000288fa       ??1CScrollView@@UAE@XZ     5f7298fa f   MFC42D:MFC42D.DLL
 0001:00028900       ?OnInitialUpdate@CFormView@@UAEXXZ 5f729900 f   MFC42D:MFC42D.DLL
 0001:00028906       ??1CWaitCursor@@QAE@XZ     5f729906 f   MFC42D:MFC42D.DLL
 0001:0002890c       ??0CWaitCursor@@QAE@XZ     5f72990c f   MFC42D:MFC42D.DLL
 0001:00028912       ?UpdateData@CWnd@@QAEHH@Z  5f729912 f   MFC42D:MFC42D.DLL
 0001:00028918       ?AfxSetWindowText@@YGXPAUHWND__@@PBD@Z 5f729918 f   MFC42D:MFC42D.DLL
 0001:0002891e       ?PrepareEditCtrl@CDataExchange@@QAEPAUHWND__@@H@Z 5f72991e f   MFC42D:MFC42D.DLL
 0001:00028924       ?DDX_Text@@YGXPAVCDataExchange@@HAAH@Z 5f729924 f   MFC42D:MFC42D.DLL
 0001:0002892a       ?DDX_Text@@YGXPAVCDataExchange@@HAAE@Z 5f72992a f   MFC42D:MFC42D.DLL
 0001:00028930       ?DDX_Text@@YGXPAVCDataExchange@@HAAI@Z 5f729930 f   MFC42D:MFC42D.DLL
 0001:00028936       ?DDX_Text@@YGXPAVCDataExchange@@HAAJ@Z 5f729936 f   MFC42D:MFC42D.DLL
 0001:0002893c       ?DDX_Text@@YGXPAVCDataExchange@@HAAK@Z 5f72993c f   MFC42D:MFC42D.DLL
 0001:00028942       ?AfxFailMaxChars@@YGXPAVCDataExchange@@H@Z 5f729942 f   MFC42D:MFC42D.DLL
 0001:00028948       ?_afxDBCS@@3HB             5f729948 f   MFC42D:MFC42D.DLL
 0001:0002894e       ?GetAllocLength@CString@@QBEHXZ 5f72994e f   MFC42D:MFC42D.DLL
 0001:00028954       ?PrepareCtrl@CDataExchange@@QAEPAUHWND__@@H@Z 5f729954 f   MFC42D:MFC42D.DLL
 0001:0002895a       ?DDX_LBIndex@@YGXPAVCDataExchange@@HAAH@Z 5f72995a f   MFC42D:MFC42D.DLL
 0001:00028960       ?DDX_CBIndex@@YGXPAVCDataExchange@@HAAH@Z 5f729960 f   MFC42D:MFC42D.DLL
 0001:00028966       ?DDX_Scroll@@YGXPAVCDataExchange@@HAAH@Z 5f729966 f   MFC42D:MFC42D.DLL
 0001:0002896c       ?AfxFailRadio@@YGXPAVCDataExchange@@@Z 5f72996c f   MFC42D:MFC42D.DLL
 0001:00028972       ?DDX_Radio@@YGXPAVCDataExchange@@HAAH@Z 5f729972 f   MFC42D:MFC42D.DLL
 0001:00028978       ?AssertValid@CFormView@@UBEXXZ 5f729978 f   MFC42D:MFC42D.DLL
 0001:0002897e       ?Dump@CFormView@@UBEXAAVCDumpContext@@@Z 5f72997e f   MFC42D:MFC42D.DLL
 0001:00028984       ?OnMove@CWnd@@IAEXHH@Z     5f729984 f   MFC42D:MFC42D.DLL
 0001:0002898a       ??6CDumpContext@@QAEAAV0@M@Z 5f72998a f   MFC42D:MFC42D.DLL
 0001:00028990       ??6CDumpContext@@QAEAAV0@N@Z 5f729990 f   MFC42D:MFC42D.DLL
 0001:00028996       ?AfxTextFloatFormat@@YGXPAVCDataExchange@@HPAXNH@Z 5f729996 f   MFC42D:MFC42D.DLL
 0001:0002899c       ?IsEmpty@CMapPtrToPtr@@QBEHXZ 5f72999c f   MFC42D:MFC42D.DLL
 0001:000289a2       ?RemoveKey@CMapPtrToPtr@@QAEHPAX@Z 5f7299a2 f   MFC42D:MFC42D.DLL
 0001:000289a8       ?RemoveAll@CMapPtrToPtr@@QAEXXZ 5f7299a8 f   MFC42D:MFC42D.DLL
 0001:000289ae       ?GetNextAssoc@CMapPtrToPtr@@QBEXAAPAU__POSITION@@AAPAX1@Z 5f7299ae f   MFC42D:MFC42D.DLL
 0001:000289b4       ?GetStartPosition@CMapPtrToPtr@@QBEPAU__POSITION@@XZ 5f7299b4 f   MFC42D:MFC42D.DLL
 0001:000289ba       ??0CString@@QAE@ABV0@@Z    5f7299ba f   MFC42D:MFC42D.DLL
 0001:000289c0       ??2CNoTrackObject@@SGPAXIPBDH@Z 5f7299c0 f   MFC42D:MFC42D.DLL
 0001:000289c6       ?AfxGetApp@@YGPAVCWinApp@@XZ 5f7299c6 f   MFC42D:MFC42D.DLL
 0001:000289cc       ??6CDumpContext@@QAEAAV0@ABVCObject@@@Z 5f7299cc f   MFC42D:MFC42D.DLL
 0001:000289d2       ?DDX_Text@@YGXPAVCDataExchange@@HAAF@Z 5f7299d2 f   MFC42D:MFC42D.DLL
 0001:000289d8       ?DDX_Text@@YGXPAVCDataExchange@@HAAM@Z 5f7299d8 f   MFC42D:MFC42D.DLL
 0001:000289de       ?DDX_Text@@YGXPAVCDataExchange@@HAAN@Z 5f7299de f   MFC42D:MFC42D.DLL
 0001:000289e4       ?DDX_Text@@YGXPAVCDataExchange@@HAAVCString@@@Z 5f7299e4 f   MFC42D:MFC42D.DLL
 0001:000289ea       ??6@YGAAVCDumpContext@@AAV0@VCOleDateTime@@@Z 5f7299ea f   MFCO42D:MFCO42D.DLL
 0001:000289f0       ??0COleDateTime@@QAE@ABV0@@Z 5f7299f0 f   MFCO42D:MFCO42D.DLL
 0001:000289f6       ??1COleVariant@@QAE@XZ     5f7299f6 f   MFCO42D:MFCO42D.DLL
 0001:000289fc       ??6@YGAAVCDumpContext@@AAV0@VCOleVariant@@@Z 5f7299fc f   MFCO42D:MFCO42D.DLL
 0001:00028a02       ??0COleVariant@@QAE@ABV0@@Z 5f729a02 f   MFCO42D:MFCO42D.DLL
 0001:00028a08       ??0COleVariant@@QAE@JG@Z   5f729a08 f   MFCO42D:MFCO42D.DLL
 0001:00028a0e       ?Clear@COleVariant@@QAEXXZ 5f729a0e f   MFCO42D:MFCO42D.DLL
 0001:00028a14       ??0COleVariant@@QAE@XZ     5f729a14 f   MFCO42D:MFCO42D.DLL
 0001:00028a1a       ??0COleVariant@@QAE@PBDG@Z 5f729a1a f   MFCO42D:MFCO42D.DLL
 0001:00028a20       ??4COleVariant@@QAEABV0@J@Z 5f729a20 f   MFCO42D:MFCO42D.DLL
 0001:00028a26       ??4COleDateTime@@QAEABV0@ABUtagVARIANT@@@Z 5f729a26 f   MFCO42D:MFCO42D.DLL
 0001:00028a2c       ??BCOleVariant@@QAEPAUtagVARIANT@@XZ 5f729a2c f   MFCO42D:MFCO42D.DLL
 0001:00028a32       ??0COleDateTime@@QAE@N@Z   5f729a32 f   MFCO42D:MFCO42D.DLL
 0001:00028a38       ??0COleVariant@@QAE@FG@Z   5f729a38 f   MFCO42D:MFCO42D.DLL
 0001:00028a3e       ??0COleVariant@@QAE@ABUtagVARIANT@@@Z 5f729a3e f   MFCO42D:MFCO42D.DLL
 0001:00028a44       ??4COleVariant@@QAEABV0@QBD@Z 5f729a44 f   MFCO42D:MFCO42D.DLL
 0001:00028a4a       ?SetStatus@COleDateTime@@QAEXW4DateTimeStatus@1@@Z 5f729a4a f   MFCO42D:MFCO42D.DLL
 0001:00028a50       ?SetStatus@COleCurrency@@QAEXW4CurrencyStatus@1@@Z 5f729a50 f   MFCO42D:MFCO42D.DLL
 0001:00028a56       ?GetStatus@COleDateTime@@QBE?AW4DateTimeStatus@1@XZ 5f729a56 f   MFCO42D:MFCO42D.DLL
 0001:00028a5c       ?GetStatus@COleCurrency@@QBE?AW4CurrencyStatus@1@XZ 5f729a5c f   MFCO42D:MFCO42D.DLL
 0001:00028a62       ??0COleDateTime@@QAE@XZ    5f729a62 f   MFCO42D:MFCO42D.DLL
 0001:00028a68       ??0COleCurrency@@QAE@XZ    5f729a68 f   MFCO42D:MFCO42D.DLL
 0001:00028a6e       ??4COleDateTime@@QAEABV0@ABV0@@Z 5f729a6e f   MFCO42D:MFCO42D.DLL
 0001:00028a74       ??4COleCurrency@@QAEABV0@ABV0@@Z 5f729a74 f   MFCO42D:MFCO42D.DLL
 0001:00028a7a       ??9COleDateTime@@QBEHABV0@@Z 5f729a7a f   MFCO42D:MFCO42D.DLL
 0001:00028a80       ??9COleCurrency@@QBEHABV0@@Z 5f729a80 f   MFCO42D:MFCO42D.DLL
 0001:00028a86       ??4COleVariant@@QAEABV0@ABVCOleDateTime@@@Z 5f729a86 f   MFCO42D:MFCO42D.DLL
 0001:00028a8c       ??4COleVariant@@QAEABV0@N@Z 5f729a8c f   MFCO42D:MFCO42D.DLL
 0001:00028a92       ??4COleVariant@@QAEABV0@M@Z 5f729a92 f   MFCO42D:MFCO42D.DLL
 0001:00028a98       ??4COleVariant@@QAEABV0@ABVCOleCurrency@@@Z 5f729a98 f   MFCO42D:MFCO42D.DLL
 0001:00028a9e       ??4COleVariant@@QAEABV0@F@Z 5f729a9e f   MFCO42D:MFCO42D.DLL
 0001:00028aa4       ??4COleVariant@@QAEABV0@E@Z 5f729aa4 f   MFCO42D:MFCO42D.DLL
 0001:00028aaa       ??4COleVariant@@QAEABV0@ABVCLongBinary@@@Z 5f729aaa f   MFCO42D:MFCO42D.DLL
 0001:00028ab0       ??4COleVariant@@QAEABV0@ABVCByteArray@@@Z 5f729ab0 f   MFCO42D:MFCO42D.DLL
 0001:00028ab6       ??6@YGAAVCDumpContext@@AAV0@VCOleCurrency@@@Z 5f729ab6 f   MFCO42D:MFCO42D.DLL
 0001:00028abc       ??0COleCurrency@@QAE@ABV0@@Z 5f729abc f   MFCO42D:MFCO42D.DLL
 0001:00028ac2       ??4COleVariant@@QAEABV0@ABV0@@Z 5f729ac2 f   MFCO42D:MFCO42D.DLL
 0001:00028ac8       ??8COleVariant@@QBEHABUtagVARIANT@@@Z 5f729ac8 f   MFCO42D:MFCO42D.DLL
 0001:00028ace       ?DDX_Text@@YGXPAVCDataExchange@@HAAVCOleCurrency@@@Z 5f729ace f   MFCO42D:MFCO42D.DLL
 0001:00028ad4       ?DDX_Text@@YGXPAVCDataExchange@@HAAVCOleDateTime@@@Z 5f729ad4 f   MFCO42D:MFCO42D.DLL
 0001:00028ada       ___CxxFrameHandler         5f729ada f   msvcrtd:MSVCRTD.dll
 0001:00028ae0       ??_L@YGXPAXIHP6EX0@Z1@Z    5f729ae0 f   msvcrtd:ehvecctr.obj
 0001:00028b80       ??_M@YGXPAXIHP6EX0@Z@Z     5f729b80 f   msvcrtd:ehvecdtr.obj
 0001:00028c30       ?__ArrayUnwind@@YGXPAXIHP6EX0@Z@Z 5f729c30 f   msvcrtd:ehvecdtr.obj
 0001:00028ce0       ??_Gtype_info@@UAEPAXI@Z   5f729ce0 f i msvcrtd:ti_inst.obj
 0001:00028ce0       ??_Etype_info@@UAEPAXI@Z   5f729ce0 f i msvcrtd:ti_inst.obj
 0001:00028d0e       __CxxThrowException@8      5f729d0e f   msvcrtd:MSVCRTD.dll
 0001:00028d14       _memset                    5f729d14 f   msvcrtd:MSVCRTD.dll
 0001:00028d1a       _memcpy                    5f729d1a f   msvcrtd:MSVCRTD.dll
 0001:00028d20       _abs                       5f729d20 f   msvcrtd:MSVCRTD.dll
 0001:00028d30       __onexit                   5f729d30 f   msvcrtd:atonexit.obj
 0001:00028d70       _atexit                    5f729d70 f   msvcrtd:atonexit.obj
 0001:00028d88       _labs                      5f729d88 f   msvcrtd:MSVCRTD.dll
 0001:00028d8e       _memcmp                    5f729d8e f   msvcrtd:MSVCRTD.dll
 0001:00028d94       __purecall                 5f729d94 f   msvcrtd:MSVCRTD.dll
 0001:00028d9a       _strcpy                    5f729d9a f   msvcrtd:MSVCRTD.dll
 0001:00028da0       _strlen                    5f729da0 f   msvcrtd:MSVCRTD.dll
 0001:00028db0       __CRT_INIT@12              5f729db0 f   msvcrtd:crtdll.obj
 0001:00028ec0       __DllMainCRTStartup@12     5f729ec0 f   msvcrtd:crtdll.obj
 0001:00028fb4       __except_handler3          5f729fb4 f   msvcrtd:MSVCRTD.dll
 0001:00028fba       ?terminate@@YAXXZ          5f729fba f   msvcrtd:MSVCRTD.dll
 0001:00028fc0       ??1type_info@@UAE@XZ       5f729fc0 f   msvcrtd:MSVCRTD.dll
 0001:00028fc6       ___dllonexit               5f729fc6 f   msvcrtd:MSVCRTD.dll
 0001:00028fcc       __initterm                 5f729fcc f   msvcrtd:MSVCRTD.dll
 0001:00028fe0       _RawDllMain@12             5f729fe0 f   dlldb.obj
 0001:0002909b       _DllMain@12                5f72a09b f   dlldb.obj
 0001:0002918b       ?AfxDbInitModule@@YGXXZ    5f72a18b f   dlldb.obj
 0001:00029250       ?_GetBaseClass@CDBException@@KGPAUCRuntimeClass@@XZ 5f72a250 f   dbcore.obj
 0001:0002925a       ?GetRuntimeClass@CDBException@@UBEPAUCRuntimeClass@@XZ 5f72a25a f   dbcore.obj
 0001:0002926a       ?_GetBaseClass@CDatabase@@KGPAUCRuntimeClass@@XZ 5f72a26a f   dbcore.obj
 0001:00029274       ?GetRuntimeClass@CDatabase@@UBEPAUCRuntimeClass@@XZ 5f72a274 f   dbcore.obj
 0001:00029284       ?_GetBaseClass@CRecordset@@KGPAUCRuntimeClass@@XZ 5f72a284 f   dbcore.obj
 0001:0002928e       ?GetRuntimeClass@CRecordset@@UBEPAUCRuntimeClass@@XZ 5f72a28e f   dbcore.obj
 0001:000292e0       ??1?$CProcessLocal@V_AFX_DB_STATE@@@@QAE@XZ 5f72a2e0 f i dbcore.obj
 0001:00029300       ??B?$CProcessLocal@V_AFX_DB_STATE@@@@QAEPAV_AFX_DB_STATE@@XZ 5f72a300 f i dbcore.obj
 0001:00029300       ??C?$CProcessLocal@V_AFX_DB_STATE@@@@QAEPAV_AFX_DB_STATE@@XZ 5f72a300 f i dbcore.obj
 0001:00029320       ?GetData@?$CProcessLocal@V_AFX_DB_STATE@@@@QAEPAV_AFX_DB_STATE@@XZ 5f72a320 f i dbcore.obj
 0001:00029370       ?CreateObject@?$CProcessLocal@V_AFX_DB_STATE@@@@SGPAVCNoTrackObject@@XZ 5f72a370 f i dbcore.obj
 0001:000293e0       ??0_AFX_DB_STATE@@QAE@XZ   5f72a3e0 f i dbcore.obj
 0001:00029400       ??0CNoTrackObject@@QAE@XZ  5f72a400 f i dbcore.obj
 0001:00029420       ?_GetBaseClass@CRecordView@@KGPAUCRuntimeClass@@XZ 5f72a420 f   dbview.obj
 0001:0002942a       ?GetRuntimeClass@CRecordView@@UBEPAUCRuntimeClass@@XZ 5f72a42a f   dbview.obj
 0001:00029440       ?_GetBaseClass@CLongBinary@@KGPAUCRuntimeClass@@XZ 5f72a440 f   dblong.obj
 0001:0002944a       ?GetRuntimeClass@CLongBinary@@UBEPAUCRuntimeClass@@XZ 5f72a44a f   dblong.obj
 0001:000296f0       ??_ECDatabase@@UAEPAXI@Z   5f72a6f0 f i dlldb.obj
 0001:00029750       ??_ECLongBinary@@UAEPAXI@Z 5f72a750 f i dlldb.obj
 0001:000297b0       ??_ECDaoWorkspace@@UAEPAXI@Z 5f72a7b0 f i dlldb.obj
 0001:00029810       ??_ECDaoException@@UAEPAXI@Z 5f72a810 f i dlldb.obj
 0001:00029870       ??_ECDaoDatabase@@UAEPAXI@Z 5f72a870 f i dlldb.obj
 0001:000298d0       ??_FCDaoDatabase@@QAEXXZ   5f72a8d0 f i dlldb.obj
 0001:000298f0       ??_ECDaoRecordset@@UAEPAXI@Z 5f72a8f0 f i dlldb.obj
 0001:00029950       ??_FCDaoRecordset@@QAEXXZ  5f72a950 f i dlldb.obj
 0001:00029970       ??B?$CTypedSimpleList@PAVCOleObjectFactory@@@@QAEPAVCOleObjectFactory@@XZ 5f72a970 f i dlldb.obj
 0001:00029970       ??B?$CTypedSimpleList@PAUCRuntimeClass@@@@QAEPAUCRuntimeClass@@XZ 5f72a970 f i dlldb.obj
 0002:00000000       __imp__GetModuleHandleA@4  5f72d000     kernel32:KERNEL32.dll
 0002:00000004       __imp__LocalFree@4         5f72d004     kernel32:KERNEL32.dll
 0002:00000008       __imp__FreeLibrary@4       5f72d008     kernel32:KERNEL32.dll
 0002:0000000c       __imp__LoadLibraryA@4      5f72d00c     kernel32:KERNEL32.dll
 0002:00000010       __imp__GetProcAddress@8    5f72d010     kernel32:KERNEL32.dll
 0002:00000014       __imp__LocalAlloc@8        5f72d014     kernel32:KERNEL32.dll
 0002:00000018       __imp__lstrcpynA@12        5f72d018     kernel32:KERNEL32.dll
 0002:0000001c       __imp__lstrlenA@4          5f72d01c     kernel32:KERNEL32.dll
 0002:00000020       __imp__lstrcmpA@8          5f72d020     kernel32:KERNEL32.dll
 0002:00000024       __imp__GlobalUnlock@4      5f72d024     kernel32:KERNEL32.dll
 0002:00000028       __imp__GlobalLock@4        5f72d028     kernel32:KERNEL32.dll
 0002:0000002c       __imp__lstrcpyA@8          5f72d02c     kernel32:KERNEL32.dll
 0002:00000030       __imp__GlobalReAlloc@12    5f72d030     kernel32:KERNEL32.dll
 0002:00000034       __imp__GlobalFree@4        5f72d034     kernel32:KERNEL32.dll
 0002:00000038       __imp__GlobalAlloc@8       5f72d038     kernel32:KERNEL32.dll
 0002:0000003c       __imp__GlobalSize@4        5f72d03c     kernel32:KERNEL32.dll
 0002:00000040       \177KERNEL32_NULL_THUNK_DATA 5f72d040     kernel32:KERNEL32.dll
 0002:00000044       __imp_??0CMapPtrToPtr@@QAE@H@Z 5f72d044     MFC42D:MFC42D.DLL
 0002:00000048       __imp_??2CObject@@SGPAXIPBDH@Z 5f72d048     MFC42D:MFC42D.DLL
 0002:0000004c       __imp_?ReportError@CException@@UAEHII@Z 5f72d04c     MFC42D:MFC42D.DLL
 0002:00000050       __imp_?Dump@CObject@@UBEXAAVCDumpContext@@@Z 5f72d050     MFC42D:MFC42D.DLL
 0002:00000054       __imp_?AssertValid@CObject@@UBEXXZ 5f72d054     MFC42D:MFC42D.DLL
 0002:00000058       __imp_?Serialize@CObject@@UAEXAAVCArchive@@@Z 5f72d058     MFC42D:MFC42D.DLL
 0002:0000005c       __imp_??1CString@@QAE@XZ   5f72d05c     MFC42D:MFC42D.DLL
 0002:00000060       __imp_??1CException@@UAE@XZ 5f72d060     MFC42D:MFC42D.DLL
 0002:00000064       __imp_??0CString@@QAE@XZ   5f72d064     MFC42D:MFC42D.DLL
 0002:00000068       __imp_??0CException@@QAE@XZ 5f72d068     MFC42D:MFC42D.DLL
 0002:0000006c       __imp_??H@YG?AVCString@@ABV0@PBD@Z 5f72d06c     MFC42D:MFC42D.DLL
 0002:00000070       __imp_??H@YG?AVCString@@PBDABV0@@Z 5f72d070     MFC42D:MFC42D.DLL
 0002:00000074       __imp_??4CString@@QAEABV0@ABV0@@Z 5f72d074     MFC42D:MFC42D.DLL
 0002:00000078       __imp_?Right@CString@@QBE?AV1@H@Z 5f72d078     MFC42D:MFC42D.DLL
 0002:0000007c       __imp_?GetLength@CString@@QBEHXZ 5f72d07c     MFC42D:MFC42D.DLL
 0002:00000080       __imp_??YCString@@QAEABV0@ABV0@@Z 5f72d080     MFC42D:MFC42D.DLL
 0002:00000084       __imp_?Left@CString@@QBE?AV1@H@Z 5f72d084     MFC42D:MFC42D.DLL
 0002:00000088       __imp_?Find@CString@@QBEHD@Z 5f72d088     MFC42D:MFC42D.DLL
 0002:0000008c       __imp_??ACString@@QBEDH@Z  5f72d08c     MFC42D:MFC42D.DLL
 0002:00000090       __imp_?IsEmpty@CString@@QBEHXZ 5f72d090     MFC42D:MFC42D.DLL
 0002:00000094       __imp_??YCString@@QAEABV0@PBD@Z 5f72d094     MFC42D:MFC42D.DLL
 0002:00000098       __imp_??BCString@@QBEPBDXZ 5f72d098     MFC42D:MFC42D.DLL
 0002:0000009c       __imp_??4CString@@QAEABV0@PBE@Z 5f72d09c     MFC42D:MFC42D.DLL
 0002:000000a0       __imp_?AfxAssertValidObject@@YGXPBVCObject@@PBDH@Z 5f72d0a0     MFC42D:MFC42D.DLL
 0002:000000a4       __imp_?AfxIsValidString@@YGHPBDH@Z 5f72d0a4     MFC42D:MFC42D.DLL
 0002:000000a8       __imp_??0CString@@QAE@PBD@Z 5f72d0a8     MFC42D:MFC42D.DLL
 0002:000000ac       __imp_?Empty@CString@@QAEXXZ 5f72d0ac     MFC42D:MFC42D.DLL
 0002:000000b0       __imp_??1CObject@@UAE@XZ   5f72d0b0     MFC42D:MFC42D.DLL
 0002:000000b4       __imp_??0CPtrList@@QAE@H@Z 5f72d0b4     MFC42D:MFC42D.DLL
 0002:000000b8       __imp_??0CObject@@IAE@XZ   5f72d0b8     MFC42D:MFC42D.DLL
 0002:000000bc       __imp_??1CPtrList@@UAE@XZ  5f72d0bc     MFC42D:MFC42D.DLL
 0002:000000c0       __imp_??4CString@@QAEABV0@PBD@Z 5f72d0c0     MFC42D:MFC42D.DLL
 0002:000000c4       __imp_?AfxUnlockGlobals@@YGXH@Z 5f72d0c4     MFC42D:MFC42D.DLL
 0002:000000c8       __imp_?GetHead@CPtrList@@QAEAAPAXXZ 5f72d0c8     MFC42D:MFC42D.DLL
 0002:000000cc       __imp_?IsEmpty@CPtrList@@QBEHXZ 5f72d0cc     MFC42D:MFC42D.DLL
 0002:000000d0       __imp_?AfxLockGlobals@@YGXH@Z 5f72d0d0     MFC42D:MFC42D.DLL
 0002:000000d4       __imp_?Delete@CException@@QAEXXZ 5f72d0d4     MFC42D:MFC42D.DLL
 0002:000000d8       __imp_?afxTraceFlags@@3IA  5f72d0d8     MFC42D:MFC42D.DLL
 0002:000000dc       __imp_?AfxThrowMemoryException@@YGXXZ 5f72d0dc     MFC42D:MFC42D.DLL
 0002:000000e0       __imp_?GetDesktopWindow@CWnd@@SGPAV1@XZ 5f72d0e0     MFC42D:MFC42D.DLL
 0002:000000e4       __imp_?GetSafeOwner@CWnd@@SGPAV1@PAV1@PAPAUHWND__@@@Z 5f72d0e4     MFC42D:MFC42D.DLL
 0002:000000e8       __imp_?GetDepth@CDumpContext@@QBEHXZ 5f72d0e8     MFC42D:MFC42D.DLL
 0002:000000ec       __imp_??6CDumpContext@@QAEAAV0@K@Z 5f72d0ec     MFC42D:MFC42D.DLL
 0002:000000f0       __imp_??6CDumpContext@@QAEAAV0@H@Z 5f72d0f0     MFC42D:MFC42D.DLL
 0002:000000f4       __imp_??6@YGAAVCDumpContext@@AAV0@ABVCString@@@Z 5f72d0f4     MFC42D:MFC42D.DLL
 0002:000000f8       __imp_??6CDumpContext@@QAEAAV0@PBX@Z 5f72d0f8     MFC42D:MFC42D.DLL
 0002:000000fc       __imp_??6CDumpContext@@QAEAAV0@PBD@Z 5f72d0fc     MFC42D:MFC42D.DLL
 0002:00000100       __imp_??1CMapPtrToPtr@@UAE@XZ 5f72d100     MFC42D:MFC42D.DLL
 0002:00000104       __imp_?AddHead@CPtrList@@QAEPAU__POSITION@@PAX@Z 5f72d104     MFC42D:MFC42D.DLL
 0002:00000108       __imp_??3CNoTrackObject@@SGXPAX@Z 5f72d108     MFC42D:MFC42D.DLL
 0002:0000010c       __imp_?LoadStringA@CString@@QAEHI@Z 5f72d10c     MFC42D:MFC42D.DLL
 0002:00000110       __imp_?RemoveAt@CPtrList@@QAEXPAU__POSITION@@@Z 5f72d110     MFC42D:MFC42D.DLL
 0002:00000114       __imp_?Find@CPtrList@@QBEPAU__POSITION@@PAXPAU2@@Z 5f72d114     MFC42D:MFC42D.DLL
 0002:00000118       __imp_?Find@CString@@QBEHPBD@Z 5f72d118     MFC42D:MFC42D.DLL
 0002:0000011c       __imp_??2@YAPAXIPBDH@Z     5f72d11c     MFC42D:MFC42D.DLL
 0002:00000120       __imp_?GetBufferSetLength@CString@@QAEPADH@Z 5f72d120     MFC42D:MFC42D.DLL
 0002:00000124       __imp_??9@YG_NABVCString@@0@Z 5f72d124     MFC42D:MFC42D.DLL
 0002:00000128       __imp_?afxChNil@@3DA       5f72d128     MFC42D:MFC42D.DLL
 0002:0000012c       __imp_?ReleaseBuffer@CString@@QAEXH@Z 5f72d12c     MFC42D:MFC42D.DLL
 0002:00000130       __imp_?GetBuffer@CString@@QAEPADH@Z 5f72d130     MFC42D:MFC42D.DLL
 0002:00000134       __imp_?MakeUpper@CString@@QAEXXZ 5f72d134     MFC42D:MFC42D.DLL
 0002:00000138       __imp_?SetAt@CString@@QAEXHD@Z 5f72d138     MFC42D:MFC42D.DLL
 0002:0000013c       __imp_?Lookup@CMapPtrToPtr@@QBEHPAXAAPAX@Z 5f72d13c     MFC42D:MFC42D.DLL
 0002:00000140       __imp_??8@YG_NABVCString@@PBD@Z 5f72d140     MFC42D:MFC42D.DLL
 0002:00000144       __imp_??6CDumpContext@@QAEAAV0@PBVCObject@@@Z 5f72d144     MFC42D:MFC42D.DLL
 0002:00000148       __imp_??6CDumpContext@@QAEAAV0@J@Z 5f72d148     MFC42D:MFC42D.DLL
 0002:0000014c       __imp_??6CDumpContext@@QAEAAV0@I@Z 5f72d14c     MFC42D:MFC42D.DLL
 0002:00000150       __imp_?classCObject@CObject@@2UCRuntimeClass@@B 5f72d150     MFC42D:MFC42D.DLL
 0002:00000154       __imp_??1CProcessLocalObject@@QAE@XZ 5f72d154     MFC42D:MFC42D.DLL
 0002:00000158       __imp_?GetData@CProcessLocalObject@@QAEPAVCNoTrackObject@@P6GPAV2@XZ@Z 5f72d158     MFC42D:MFC42D.DLL
 0002:0000015c       __imp_??2CNoTrackObject@@SGPAXI@Z 5f72d15c     MFC42D:MFC42D.DLL
 0002:00000160       __imp_?GetData@CByteArray@@QAEPAEXZ 5f72d160     MFC42D:MFC42D.DLL
 0002:00000164       __imp_??YCString@@QAEABV0@D@Z 5f72d164     MFC42D:MFC42D.DLL
 0002:00000168       __imp_?SetAt@CMapPtrToPtr@@QAEXPAX0@Z 5f72d168     MFC42D:MFC42D.DLL
 0002:0000016c       __imp_?LockBuffer@CString@@QAEPADXZ 5f72d16c     MFC42D:MFC42D.DLL
 0002:00000170       __imp_??6CDumpContext@@QAEAAV0@E@Z 5f72d170     MFC42D:MFC42D.DLL
 0002:00000174       __imp_??0CByteArray@@QAE@XZ 5f72d174     MFC42D:MFC42D.DLL
 0002:00000178       __imp_?SetSize@CByteArray@@QAEXHH@Z 5f72d178     MFC42D:MFC42D.DLL
 0002:0000017c       __imp_??ACByteArray@@QAEAAEH@Z 5f72d17c     MFC42D:MFC42D.DLL
 0002:00000180       __imp_?GetSize@CByteArray@@QBEHXZ 5f72d180     MFC42D:MFC42D.DLL
 0002:00000184       __imp_??6@YGAAVCDumpContext@@AAV0@VCTime@@@Z 5f72d184     MFC42D:MFC42D.DLL
 0002:00000188       __imp_??0CTime@@QAE@XZ     5f72d188     MFC42D:MFC42D.DLL
 0002:0000018c       __imp_??9CTime@@QBEHV0@@Z  5f72d18c     MFC42D:MFC42D.DLL
 0002:00000190       __imp_??0CTime@@QAE@ABV0@@Z 5f72d190     MFC42D:MFC42D.DLL
 0002:00000194       __imp_??0CTime@@QAE@HHHHHHH@Z 5f72d194     MFC42D:MFC42D.DLL
 0002:00000198       __imp_??4CTime@@QAEABV0@ABV0@@Z 5f72d198     MFC42D:MFC42D.DLL
 0002:0000019c       __imp_??0CTime@@QAE@J@Z    5f72d19c     MFC42D:MFC42D.DLL
 0002:000001a0       __imp_?GetSecond@CTime@@QBEHXZ 5f72d1a0     MFC42D:MFC42D.DLL
 0002:000001a4       __imp_?GetMinute@CTime@@QBEHXZ 5f72d1a4     MFC42D:MFC42D.DLL
 0002:000001a8       __imp_?GetHour@CTime@@QBEHXZ 5f72d1a8     MFC42D:MFC42D.DLL
 0002:000001ac       __imp_?GetDay@CTime@@QBEHXZ 5f72d1ac     MFC42D:MFC42D.DLL
 0002:000001b0       __imp_?GetMonth@CTime@@QBEHXZ 5f72d1b0     MFC42D:MFC42D.DLL
 0002:000001b4       __imp_?GetYear@CTime@@QBEHXZ 5f72d1b4     MFC42D:MFC42D.DLL
 0002:000001b8       __imp_??6CDumpContext@@QAEAAV0@G@Z 5f72d1b8     MFC42D:MFC42D.DLL
 0002:000001bc       __imp_??8CTime@@QBEHV0@@Z  5f72d1bc     MFC42D:MFC42D.DLL
 0002:000001c0       __imp_??8@YG_NABVCString@@0@Z 5f72d1c0     MFC42D:MFC42D.DLL
 0002:000001c4       __imp_?Copy@CByteArray@@QAEXABV1@@Z 5f72d1c4     MFC42D:MFC42D.DLL
 0002:000001c8       __imp_?messageMap@CFormView@@1UAFX_MSGMAP@@B 5f72d1c8     MFC42D:MFC42D.DLL
 0002:000001cc       __imp_?OnEndPrintPreview@CView@@MAEXPAVCDC@@PAUCPrintInfo@@UtagPOINT@@PAVCPreviewView@@@Z 5f72d1cc     MFC42D:MFC42D.DLL
 0002:000001d0       __imp_?OnEndPrinting@CView@@MAEXPAVCDC@@PAUCPrintInfo@@@Z 5f72d1d0     MFC42D:MFC42D.DLL
 0002:000001d4       __imp_?AfxIsValidAddress@@YGHPBXIH@Z 5f72d1d4     MFC42D:MFC42D.DLL
 0002:000001d8       __imp_?IsKindOf@CObject@@QBEHPBUCRuntimeClass@@@Z 5f72d1d8     MFC42D:MFC42D.DLL
 0002:000001dc       __imp_?OnPreparePrinting@CView@@MAEHPAUCPrintInfo@@@Z 5f72d1dc     MFC42D:MFC42D.DLL
 0002:000001e0       __imp_?OnDraw@CFormView@@MAEXPAVCDC@@@Z 5f72d1e0     MFC42D:MFC42D.DLL
 0002:000001e4       __imp_?OnUpdate@CView@@MAEXPAV1@JPAVCObject@@@Z 5f72d1e4     MFC42D:MFC42D.DLL
 0002:000001e8       __imp_?OnActivateFrame@CFormView@@MAEXIPAVCFrameWnd@@@Z 5f72d1e8     MFC42D:MFC42D.DLL
 0002:000001ec       __imp_?OnActivateView@CFormView@@MAEXHPAVCView@@0@Z 5f72d1ec     MFC42D:MFC42D.DLL
 0002:000001f0       __imp_?OnPrepareDC@CScrollView@@UAEXPAVCDC@@PAUCPrintInfo@@@Z 5f72d1f0     MFC42D:MFC42D.DLL
 0002:000001f4       __imp_?OnDragScroll@CView@@UAEKKVCPoint@@@Z 5f72d1f4     MFC42D:MFC42D.DLL
 0002:000001f8       __imp_?OnDropEx@CView@@UAEKPAVCOleDataObject@@KKVCPoint@@@Z 5f72d1f8     MFC42D:MFC42D.DLL
 0002:000001fc       __imp_?OnDrop@CView@@UAEHPAVCOleDataObject@@KVCPoint@@@Z 5f72d1fc     MFC42D:MFC42D.DLL
 0002:00000200       __imp_?OnDragLeave@CView@@UAEXXZ 5f72d200     MFC42D:MFC42D.DLL
 0002:00000204       __imp_?OnDragOver@CView@@UAEKPAVCOleDataObject@@KVCPoint@@@Z 5f72d204     MFC42D:MFC42D.DLL
 0002:00000208       __imp_?OnDragEnter@CView@@UAEKPAVCOleDataObject@@KVCPoint@@@Z 5f72d208     MFC42D:MFC42D.DLL
 0002:0000020c       __imp_?OnScrollBy@CScrollView@@UAEHVCSize@@H@Z 5f72d20c     MFC42D:MFC42D.DLL
 0002:00000210       __imp_?OnScroll@CScrollView@@UAEHIIH@Z 5f72d210     MFC42D:MFC42D.DLL
 0002:00000214       __imp_?IsSelected@CView@@UBEHPBVCObject@@@Z 5f72d214     MFC42D:MFC42D.DLL
 0002:00000218       __imp_?SetOccDialogInfo@CFormView@@MAEHPAU_AFX_OCC_DIALOG_INFO@@@Z 5f72d218     MFC42D:MFC42D.DLL
 0002:0000021c       __imp_?IsFrameWnd@CWnd@@UBEHXZ 5f72d21c     MFC42D:MFC42D.DLL
 0002:00000220       __imp_?CheckAutoCenter@CWnd@@UAEHXZ 5f72d220     MFC42D:MFC42D.DLL
 0002:00000224       __imp_?OnChildNotify@CWnd@@MAEHIIJPAJ@Z 5f72d224     MFC42D:MFC42D.DLL
 0002:00000228       __imp_?PostNcDestroy@CView@@MAEXXZ 5f72d228     MFC42D:MFC42D.DLL
 0002:0000022c       __imp_?DefWindowProcA@CWnd@@MAEJIIJ@Z 5f72d22c     MFC42D:MFC42D.DLL
 0002:00000230       __imp_?OnWndMsg@CWnd@@MAEHIIJPAJ@Z 5f72d230     MFC42D:MFC42D.DLL
 0002:00000234       __imp_?WindowProc@CWnd@@MAEJIIJ@Z 5f72d234     MFC42D:MFC42D.DLL
 0002:00000238       __imp_?OnAmbientProperty@CWnd@@UAEHPAVCOleControlSite@@JPAUtagVARIANT@@@Z 5f72d238     MFC42D:MFC42D.DLL
 0002:0000023c       __imp_?PreTranslateMessage@CFormView@@MAEHPAUtagMSG@@@Z 5f72d23c     MFC42D:MFC42D.DLL
 0002:00000240       __imp_?EndModalState@CWnd@@UAEXXZ 5f72d240     MFC42D:MFC42D.DLL
 0002:00000244       __imp_?BeginModalState@CWnd@@UAEXXZ 5f72d244     MFC42D:MFC42D.DLL
 0002:00000248       __imp_?DoDataExchange@CWnd@@MAEXPAVCDataExchange@@@Z 5f72d248     MFC42D:MFC42D.DLL
 0002:0000024c       __imp_?GetSuperWndProcAddr@CWnd@@MAEPAP6GJPAUHWND__@@IIJ@ZXZ 5f72d24c     MFC42D:MFC42D.DLL
 0002:00000250       __imp_?OnNotify@CWnd@@MAEHIJPAJ@Z 5f72d250     MFC42D:MFC42D.DLL
 0002:00000254       __imp_?OnCommand@CWnd@@MAEHIJ@Z 5f72d254     MFC42D:MFC42D.DLL
 0002:00000258       __imp_?EndModalLoop@CWnd@@UAEXH@Z 5f72d258     MFC42D:MFC42D.DLL
 0002:0000025c       __imp_?ContinueModal@CWnd@@UAEHXZ 5f72d25c     MFC42D:MFC42D.DLL
 0002:00000260       __imp_?WinHelpA@CWnd@@UAEXKI@Z 5f72d260     MFC42D:MFC42D.DLL
 0002:00000264       __imp_?GetScrollBarCtrl@CView@@UBEPAVCScrollBar@@H@Z 5f72d264     MFC42D:MFC42D.DLL
 0002:00000268       __imp_?OnToolHitTest@CWnd@@UBEHVCPoint@@PAUtagTOOLINFOA@@@Z 5f72d268     MFC42D:MFC42D.DLL
 0002:0000026c       __imp_?AfxGetModuleState@@YGPAVAFX_MODULE_STATE@@XZ 5f72d26c     MFC42D:MFC42D.DLL
 0002:00000270       __imp_?PreCreateWindow@CView@@MAEHAAUtagCREATESTRUCTA@@@Z 5f72d270     MFC42D:MFC42D.DLL
 0002:00000274       __imp_?DestroyWindow@CWnd@@UAEHXZ 5f72d274     MFC42D:MFC42D.DLL
 0002:00000278       __imp_?Create@CFormView@@MAEHPBD0KABUtagRECT@@PAVCWnd@@IPAUCCreateContext@@@Z 5f72d278     MFC42D:MFC42D.DLL
 0002:0000027c       __imp_?PreSubclassWindow@CWnd@@UAEXXZ 5f72d27c     MFC42D:MFC42D.DLL
 0002:00000280       __imp_?GetConnectionHook@CCmdTarget@@MAEPAUIConnectionPoint@@ABU_GUID@@@Z 5f72d280     MFC42D:MFC42D.DLL
 0002:00000284       __imp_?GetExtraConnectionPoints@CCmdTarget@@MAEHPAVCPtrArray@@@Z 5f72d284     MFC42D:MFC42D.DLL
 0002:00000288       __imp_?GetInterfaceHook@CCmdTarget@@UAEPAUIUnknown@@PBX@Z 5f72d288     MFC42D:MFC42D.DLL
 0002:0000028c       __imp_?OnCreateAggregates@CCmdTarget@@UAEHXZ 5f72d28c     MFC42D:MFC42D.DLL
 0002:00000290       __imp_?GetEventSinkMap@CCmdTarget@@MBEPBUAFX_EVENTSINKMAP@@XZ 5f72d290     MFC42D:MFC42D.DLL
 0002:00000294       __imp_?GetInterfaceMap@CCmdTarget@@MBEPBUAFX_INTERFACEMAP@@XZ 5f72d294     MFC42D:MFC42D.DLL
 0002:00000298       __imp_?GetConnectionMap@CCmdTarget@@MBEPBUAFX_CONNECTIONMAP@@XZ 5f72d298     MFC42D:MFC42D.DLL
 0002:0000029c       __imp_?GetDispatchMap@CCmdTarget@@MBEPBUAFX_DISPMAP@@XZ 5f72d29c     MFC42D:MFC42D.DLL
 0002:000002a0       __imp_?GetCommandMap@CCmdTarget@@MBEPBUAFX_OLECMDMAP@@XZ 5f72d2a0     MFC42D:MFC42D.DLL
 0002:000002a4       __imp_?GetTypeLib@CCmdTarget@@UAEJKPAPAUITypeLib@@@Z 5f72d2a4     MFC42D:MFC42D.DLL
 0002:000002a8       __imp_?GetTypeLibCache@CCmdTarget@@UAEPAVCTypeLibCache@@XZ 5f72d2a8     MFC42D:MFC42D.DLL
 0002:000002ac       __imp_?GetTypeInfoCount@CCmdTarget@@UAEIXZ 5f72d2ac     MFC42D:MFC42D.DLL
 0002:000002b0       __imp_?GetDispatchIID@CCmdTarget@@UAEHPAU_GUID@@@Z 5f72d2b0     MFC42D:MFC42D.DLL
 0002:000002b4       __imp_?IsInvokeAllowed@CCmdTarget@@UAEHJ@Z 5f72d2b4     MFC42D:MFC42D.DLL
 0002:000002b8       __imp_?OnFinalRelease@CWnd@@UAEXXZ 5f72d2b8     MFC42D:MFC42D.DLL
 0002:000002bc       __imp_?OnCmdMsg@CView@@MAEHIHPAXPAUAFX_CMDHANDLERINFO@@@Z 5f72d2bc     MFC42D:MFC42D.DLL
 0002:000002c0       __imp_??0CFormView@@IAE@PBD@Z 5f72d2c0     MFC42D:MFC42D.DLL
 0002:000002c4       __imp_??0CFormView@@IAE@I@Z 5f72d2c4     MFC42D:MFC42D.DLL
 0002:000002c8       __imp_??1CScrollView@@UAE@XZ 5f72d2c8     MFC42D:MFC42D.DLL
 0002:000002cc       __imp_?OnInitialUpdate@CFormView@@UAEXXZ 5f72d2cc     MFC42D:MFC42D.DLL
 0002:000002d0       __imp_??1CWaitCursor@@QAE@XZ 5f72d2d0     MFC42D:MFC42D.DLL
 0002:000002d4       __imp_??0CWaitCursor@@QAE@XZ 5f72d2d4     MFC42D:MFC42D.DLL
 0002:000002d8       __imp_?UpdateData@CWnd@@QAEHH@Z 5f72d2d8     MFC42D:MFC42D.DLL
 0002:000002dc       __imp_?AfxSetWindowText@@YGXPAUHWND__@@PBD@Z 5f72d2dc     MFC42D:MFC42D.DLL
 0002:000002e0       __imp_?PrepareEditCtrl@CDataExchange@@QAEPAUHWND__@@H@Z 5f72d2e0     MFC42D:MFC42D.DLL
 0002:000002e4       __imp_?DDX_Text@@YGXPAVCDataExchange@@HAAH@Z 5f72d2e4     MFC42D:MFC42D.DLL
 0002:000002e8       __imp_?DDX_Text@@YGXPAVCDataExchange@@HAAE@Z 5f72d2e8     MFC42D:MFC42D.DLL
 0002:000002ec       __imp_?DDX_Text@@YGXPAVCDataExchange@@HAAI@Z 5f72d2ec     MFC42D:MFC42D.DLL
 0002:000002f0       __imp_?DDX_Text@@YGXPAVCDataExchange@@HAAJ@Z 5f72d2f0     MFC42D:MFC42D.DLL
 0002:000002f4       __imp_?DDX_Text@@YGXPAVCDataExchange@@HAAK@Z 5f72d2f4     MFC42D:MFC42D.DLL
 0002:000002f8       __imp_?AfxFailMaxChars@@YGXPAVCDataExchange@@H@Z 5f72d2f8     MFC42D:MFC42D.DLL
 0002:000002fc       __imp_?_afxDBCS@@3HB       5f72d2fc     MFC42D:MFC42D.DLL
 0002:00000300       __imp_?GetAllocLength@CString@@QBEHXZ 5f72d300     MFC42D:MFC42D.DLL
 0002:00000304       __imp_?PrepareCtrl@CDataExchange@@QAEPAUHWND__@@H@Z 5f72d304     MFC42D:MFC42D.DLL
 0002:00000308       __imp_?DDX_LBIndex@@YGXPAVCDataExchange@@HAAH@Z 5f72d308     MFC42D:MFC42D.DLL
 0002:0000030c       __imp_?DDX_CBIndex@@YGXPAVCDataExchange@@HAAH@Z 5f72d30c     MFC42D:MFC42D.DLL
 0002:00000310       __imp_?DDX_Scroll@@YGXPAVCDataExchange@@HAAH@Z 5f72d310     MFC42D:MFC42D.DLL
 0002:00000314       __imp_?AfxFailRadio@@YGXPAVCDataExchange@@@Z 5f72d314     MFC42D:MFC42D.DLL
 0002:00000318       __imp_?DDX_Radio@@YGXPAVCDataExchange@@HAAH@Z 5f72d318     MFC42D:MFC42D.DLL
 0002:0000031c       __imp_?AssertValid@CFormView@@UBEXXZ 5f72d31c     MFC42D:MFC42D.DLL
 0002:00000320       __imp_?Dump@CFormView@@UBEXAAVCDumpContext@@@Z 5f72d320     MFC42D:MFC42D.DLL
 0002:00000324       __imp_?OnMove@CWnd@@IAEXHH@Z 5f72d324     MFC42D:MFC42D.DLL
 0002:00000328       __imp_?classCFormView@CFormView@@2UCRuntimeClass@@B 5f72d328     MFC42D:MFC42D.DLL
 0002:0000032c       __imp_??6CDumpContext@@QAEAAV0@M@Z 5f72d32c     MFC42D:MFC42D.DLL
 0002:00000330       __imp_??6CDumpContext@@QAEAAV0@N@Z 5f72d330     MFC42D:MFC42D.DLL
 0002:00000334       __imp_?AfxTextFloatFormat@@YGXPAVCDataExchange@@HPAXNH@Z 5f72d334     MFC42D:MFC42D.DLL
 0002:00000338       __imp_?IsEmpty@CMapPtrToPtr@@QBEHXZ 5f72d338     MFC42D:MFC42D.DLL
 0002:0000033c       __imp_?RemoveKey@CMapPtrToPtr@@QAEHPAX@Z 5f72d33c     MFC42D:MFC42D.DLL
 0002:00000340       __imp_?RemoveAll@CMapPtrToPtr@@QAEXXZ 5f72d340     MFC42D:MFC42D.DLL
 0002:00000344       __imp_?GetNextAssoc@CMapPtrToPtr@@QBEXAAPAU__POSITION@@AAPAX1@Z 5f72d344     MFC42D:MFC42D.DLL
 0002:00000348       __imp_?GetStartPosition@CMapPtrToPtr@@QBEPAU__POSITION@@XZ 5f72d348     MFC42D:MFC42D.DLL
 0002:0000034c       __imp_??0CString@@QAE@ABV0@@Z 5f72d34c     MFC42D:MFC42D.DLL
 0002:00000350       __imp_??2CNoTrackObject@@SGPAXIPBDH@Z 5f72d350     MFC42D:MFC42D.DLL
 0002:00000354       __imp_?AfxGetApp@@YGPAVCWinApp@@XZ 5f72d354     MFC42D:MFC42D.DLL
 0002:00000358       __imp_??6CDumpContext@@QAEAAV0@ABVCObject@@@Z 5f72d358     MFC42D:MFC42D.DLL
 0002:0000035c       __imp_?DDX_Text@@YGXPAVCDataExchange@@HAAF@Z 5f72d35c     MFC42D:MFC42D.DLL
 0002:00000360       __imp_?DDX_Text@@YGXPAVCDataExchange@@HAAM@Z 5f72d360     MFC42D:MFC42D.DLL
 0002:00000364       __imp_?DDX_Text@@YGXPAVCDataExchange@@HAAN@Z 5f72d364     MFC42D:MFC42D.DLL
 0002:00000368       __imp_?DDX_Text@@YGXPAVCDataExchange@@HAAVCString@@@Z 5f72d368     MFC42D:MFC42D.DLL
 0002:0000036c       __imp_?AfxLoadDll@@YGPAUHINSTANCE__@@RAPAU1@PBD@Z 5f72d36c     MFC42D:MFC42D.DLL
 0002:00000370       __imp_?classCException@CException@@2UCRuntimeClass@@B 5f72d370     MFC42D:MFC42D.DLL
 0002:00000374       __imp_??2@YAPAXI@Z         5f72d374     MFC42D:MFC42D.DLL
 0002:00000378       __imp_?AfxTrace@@YAXPBDZZ  5f72d378     MFC42D:MFC42D.DLL
 0002:0000037c       __imp_??3CException@@SGXPAX@Z 5f72d37c     MFC42D:MFC42D.DLL
 0002:00000380       __imp_?AfxInitExtensionModule@@YGHAAUAFX_EXTENSION_MODULE@@PAUHINSTANCE__@@@Z 5f72d380     MFC42D:MFC42D.DLL
 0002:00000384       __imp_??3@YAXPAX@Z         5f72d384     MFC42D:MFC42D.DLL
 0002:00000388       __imp_?AfxGetAppModuleState@@YGPAVAFX_MODULE_STATE@@XZ 5f72d388     MFC42D:MFC42D.DLL
 0002:0000038c       __imp_??0CDynLinkLibrary@@QAE@AAUAFX_EXTENSION_MODULE@@H@Z 5f72d38c     MFC42D:MFC42D.DLL
 0002:00000390       __imp_?AfxAssertFailedLine@@YGHPBDH@Z 5f72d390     MFC42D:MFC42D.DLL
 0002:00000394       __imp_??2CObject@@SGPAXI@Z 5f72d394     MFC42D:MFC42D.DLL
 0002:00000398       __imp_??3CObject@@SGXPAX@Z 5f72d398     MFC42D:MFC42D.DLL
 0002:0000039c       __imp_?AfxTermExtensionModule@@YGXAAUAFX_EXTENSION_MODULE@@H@Z 5f72d39c     MFC42D:MFC42D.DLL
 0002:000003a0       __imp_?AfxTermThread@@YGXPAUHINSTANCE__@@@Z 5f72d3a0     MFC42D:MFC42D.DLL
 0002:000003a4       __imp_?OnPrint@CView@@MAEXPAVCDC@@PAUCPrintInfo@@@Z 5f72d3a4     MFC42D:MFC42D.DLL
 0002:000003a8       __imp_?OnBeginPrinting@CView@@MAEXPAVCDC@@PAUCPrintInfo@@@Z 5f72d3a8     MFC42D:MFC42D.DLL
 0002:000003ac       __imp_?CalcWindowRect@CScrollView@@UAEXPAUtagRECT@@I@Z 5f72d3ac     MFC42D:MFC42D.DLL
 0002:000003b0       \177MFC42D_NULL_THUNK_DATA 5f72d3b0     MFC42D:MFC42D.DLL
 0002:000003b4       __imp_??6@YGAAVCDumpContext@@AAV0@VCOleDateTime@@@Z 5f72d3b4     MFCO42D:MFCO42D.DLL
 0002:000003b8       __imp_?SetStatus@COleCurrency@@QAEXW4CurrencyStatus@1@@Z 5f72d3b8     MFCO42D:MFCO42D.DLL
 0002:000003bc       __imp_?GetStatus@COleDateTime@@QBE?AW4DateTimeStatus@1@XZ 5f72d3bc     MFCO42D:MFCO42D.DLL
 0002:000003c0       __imp_?GetStatus@COleCurrency@@QBE?AW4CurrencyStatus@1@XZ 5f72d3c0     MFCO42D:MFCO42D.DLL
 0002:000003c4       __imp_??0COleDateTime@@QAE@XZ 5f72d3c4     MFCO42D:MFCO42D.DLL
 0002:000003c8       __imp_??0COleCurrency@@QAE@XZ 5f72d3c8     MFCO42D:MFCO42D.DLL
 0002:000003cc       __imp_??4COleDateTime@@QAEABV0@ABV0@@Z 5f72d3cc     MFCO42D:MFCO42D.DLL
 0002:000003d0       __imp_??4COleCurrency@@QAEABV0@ABV0@@Z 5f72d3d0     MFCO42D:MFCO42D.DLL
 0002:000003d4       __imp_??9COleDateTime@@QBEHABV0@@Z 5f72d3d4     MFCO42D:MFCO42D.DLL
 0002:000003d8       __imp_??9COleCurrency@@QBEHABV0@@Z 5f72d3d8     MFCO42D:MFCO42D.DLL
 0002:000003dc       __imp_??4COleVariant@@QAEABV0@ABVCOleDateTime@@@Z 5f72d3dc     MFCO42D:MFCO42D.DLL
 0002:000003e0       __imp_??4COleVariant@@QAEABV0@N@Z 5f72d3e0     MFCO42D:MFCO42D.DLL
 0002:000003e4       __imp_??4COleVariant@@QAEABV0@M@Z 5f72d3e4     MFCO42D:MFCO42D.DLL
 0002:000003e8       __imp_??4COleVariant@@QAEABV0@ABVCOleCurrency@@@Z 5f72d3e8     MFCO42D:MFCO42D.DLL
 0002:000003ec       __imp_??4COleVariant@@QAEABV0@F@Z 5f72d3ec     MFCO42D:MFCO42D.DLL
 0002:000003f0       __imp_??4COleVariant@@QAEABV0@E@Z 5f72d3f0     MFCO42D:MFCO42D.DLL
 0002:000003f4       __imp_??4COleVariant@@QAEABV0@ABVCLongBinary@@@Z 5f72d3f4     MFCO42D:MFCO42D.DLL
 0002:000003f8       __imp_??4COleVariant@@QAEABV0@ABVCByteArray@@@Z 5f72d3f8     MFCO42D:MFCO42D.DLL
 0002:000003fc       __imp_??6@YGAAVCDumpContext@@AAV0@VCOleCurrency@@@Z 5f72d3fc     MFCO42D:MFCO42D.DLL
 0002:00000400       __imp_??0COleCurrency@@QAE@ABV0@@Z 5f72d400     MFCO42D:MFCO42D.DLL
 0002:00000404       __imp_??4COleVariant@@QAEABV0@ABV0@@Z 5f72d404     MFCO42D:MFCO42D.DLL
 0002:00000408       __imp_??8COleVariant@@QBEHABUtagVARIANT@@@Z 5f72d408     MFCO42D:MFCO42D.DLL
 0002:0000040c       __imp_?DDX_Text@@YGXPAVCDataExchange@@HAAVCOleCurrency@@@Z 5f72d40c     MFCO42D:MFCO42D.DLL
 0002:00000410       __imp_?DDX_Text@@YGXPAVCDataExchange@@HAAVCOleDateTime@@@Z 5f72d410     MFCO42D:MFCO42D.DLL
 0002:00000414       __imp_??6@YGAAVCDumpContext@@AAV0@VCOleVariant@@@Z 5f72d414     MFCO42D:MFCO42D.DLL
 0002:00000418       __imp_??0COleVariant@@QAE@ABV0@@Z 5f72d418     MFCO42D:MFCO42D.DLL
 0002:0000041c       __imp_??1COleVariant@@QAE@XZ 5f72d41c     MFCO42D:MFCO42D.DLL
 0002:00000420       __imp_?Clear@COleVariant@@QAEXXZ 5f72d420     MFCO42D:MFCO42D.DLL
 0002:00000424       __imp_??0COleVariant@@QAE@XZ 5f72d424     MFCO42D:MFCO42D.DLL
 0002:00000428       __imp_??0COleVariant@@QAE@JG@Z 5f72d428     MFCO42D:MFCO42D.DLL
 0002:0000042c       __imp_??4COleVariant@@QAEABV0@J@Z 5f72d42c     MFCO42D:MFCO42D.DLL
 0002:00000430       __imp_??0COleDateTime@@QAE@ABV0@@Z 5f72d430     MFCO42D:MFCO42D.DLL
 0002:00000434       __imp_??0COleVariant@@QAE@PBDG@Z 5f72d434     MFCO42D:MFCO42D.DLL
 0002:00000438       __imp_??4COleDateTime@@QAEABV0@ABUtagVARIANT@@@Z 5f72d438     MFCO42D:MFCO42D.DLL
 0002:0000043c       __imp_??BCOleVariant@@QAEPAUtagVARIANT@@XZ 5f72d43c     MFCO42D:MFCO42D.DLL
 0002:00000440       __imp_?SetStatus@COleDateTime@@QAEXW4DateTimeStatus@1@@Z 5f72d440     MFCO42D:MFCO42D.DLL
 0002:00000444       __imp_??0COleVariant@@QAE@FG@Z 5f72d444     MFCO42D:MFCO42D.DLL
 0002:00000448       __imp_??0COleVariant@@QAE@ABUtagVARIANT@@@Z 5f72d448     MFCO42D:MFCO42D.DLL
 0002:0000044c       __imp_??4COleVariant@@QAEABV0@QBD@Z 5f72d44c     MFCO42D:MFCO42D.DLL
 0002:00000450       __imp_?_afxOLE@@3UAFX_OLE_CALL@@A 5f72d450     MFCO42D:MFCO42D.DLL
 0002:00000454       __imp_??0COleDateTime@@QAE@N@Z 5f72d454     MFCO42D:MFCO42D.DLL
 0002:00000458       \177MFCO42D_NULL_THUNK_DATA 5f72d458     MFCO42D:MFCO42D.DLL
 0002:0000045c       __imp____dllonexit         5f72d45c     msvcrtd:MSVCRTD.dll
 0002:00000460       __imp_?terminate@@YAXXZ    5f72d460     msvcrtd:MSVCRTD.dll
 0002:00000464       __imp___except_handler3    5f72d464     msvcrtd:MSVCRTD.dll
 0002:00000468       __imp___malloc_dbg         5f72d468     msvcrtd:MSVCRTD.dll
 0002:0000046c       __imp___adjust_fdiv        5f72d46c     msvcrtd:MSVCRTD.dll
 0002:00000470       __imp_??1type_info@@UAE@XZ 5f72d470     msvcrtd:MSVCRTD.dll
 0002:00000474       __imp___mbctype            5f72d474     msvcrtd:MSVCRTD.dll
 0002:00000478       __imp__strlen              5f72d478     msvcrtd:MSVCRTD.dll
 0002:0000047c       __imp___purecall           5f72d47c     msvcrtd:MSVCRTD.dll
 0002:00000480       __imp___initterm           5f72d480     msvcrtd:MSVCRTD.dll
 0002:00000484       __imp__memcmp              5f72d484     msvcrtd:MSVCRTD.dll
 0002:00000488       __imp__labs                5f72d488     msvcrtd:MSVCRTD.dll
 0002:0000048c       __imp__memset              5f72d48c     msvcrtd:MSVCRTD.dll
 0002:00000490       __imp___mbsstr             5f72d490     msvcrtd:MSVCRTD.dll
 0002:00000494       __imp__memcpy              5f72d494     msvcrtd:MSVCRTD.dll
 0002:00000498       __imp___CxxThrowException@8 5f72d498     msvcrtd:MSVCRTD.dll
 0002:0000049c       __imp___mbsinc             5f72d49c     msvcrtd:MSVCRTD.dll
 0002:000004a0       __imp___mbsnbicmp          5f72d4a0     msvcrtd:MSVCRTD.dll
 0002:000004a4       __imp___onexit             5f72d4a4     msvcrtd:MSVCRTD.dll
 0002:000004a8       __imp____CxxFrameHandler   5f72d4a8     msvcrtd:MSVCRTD.dll
 0002:000004ac       __imp___free_dbg           5f72d4ac     msvcrtd:MSVCRTD.dll
 0002:000004b0       __imp__abs                 5f72d4b0     msvcrtd:MSVCRTD.dll
 0002:000004b4       __imp__strcpy              5f72d4b4     msvcrtd:MSVCRTD.dll
 0002:000004b8       \177MSVCRTD_NULL_THUNK_DATA 5f72d4b8     msvcrtd:MSVCRTD.dll
 0002:000004bc       __imp__EnableWindow@8      5f72d4bc     user32:USER32.dll
 0002:000004c0       __imp__GetWindowTextA@12   5f72d4c0     user32:USER32.dll
 0002:000004c4       __imp__GetWindowTextLengthA@4 5f72d4c4     user32:USER32.dll
 0002:000004c8       __imp__SendMessageA@16     5f72d4c8     user32:USER32.dll
 0002:000004cc       __imp__GetWindowLongA@8    5f72d4cc     user32:USER32.dll
 0002:000004d0       __imp__wsprintfA           5f72d4d0     user32:USER32.dll
 0002:000004d4       \177USER32_NULL_THUNK_DATA 5f72d4d4     user32:USER32.dll
 0002:00000550       ??_C@_0M@EAGE@MFCO42D?4DLL?$AA@ 5f72d550     dlldb.obj
 0002:0000055c       ??_C@_0L@LDKI@MFC42D?4DLL?$AA@ 5f72d55c     dlldb.obj
 0002:00000608       ?classCDBException@CDBException@@2UCRuntimeClass@@B 5f72d608     dbcore.obj
 0002:00000620       ?classCDatabase@CDatabase@@2UCRuntimeClass@@B 5f72d620     dbcore.obj
 0002:00000638       ?classCRecordset@CRecordset@@2UCRuntimeClass@@B 5f72d638     dbcore.obj
 0002:00000650       ??_C@_0L@FKJL@CRecordset?$AA@ 5f72d650     dbcore.obj
 0002:0000065c       ??_C@_09CDJB@CDatabase?$AA@ 5f72d65c     dbcore.obj
 0002:00000668       ??_C@_0N@GGEG@CDBException?$AA@ 5f72d668     dbcore.obj
 0002:00000678       ??_C@_0BA@GAB@SQLAllocConnect?$AA@ 5f72d678     dbcore.obj
 0002:00000688       ??_C@_0CA@FFML@Error?3?5Couldn?8t?5find?5?$CFs?5in?5?$CFs?$CB?6?$AA@ 5f72d688     dbcore.obj
 0002:000006a8       ??_C@_0M@JNCF@SQLAllocEnv?$AA@ 5f72d6a8     dbcore.obj
 0002:000006b4       ??_C@_0N@CKM@SQLAllocStmt?$AA@ 5f72d6b4     dbcore.obj
 0002:000006c4       ??_C@_0L@OIJC@SQLBindCol?$AA@ 5f72d6c4     dbcore.obj
 0002:000006d0       ??_C@_09CBFO@SQLCancel?$AA@ 5f72d6d0     dbcore.obj
 0002:000006dc       ??_C@_0P@GEGO@SQLDescribeCol?$AA@ 5f72d6dc     dbcore.obj
 0002:000006ec       ??_C@_0O@INLK@SQLDisconnect?$AA@ 5f72d6ec     dbcore.obj
 0002:000006fc       ??_C@_0BB@HELA@SQLDriverConnect?$AA@ 5f72d6fc     dbcore.obj
 0002:00000710       ??_C@_08IKAG@SQLError?$AA@ 5f72d710     dbcore.obj
 0002:0000071c       ??_C@_0O@PLFK@SQLExecDirect?$AA@ 5f72d71c     dbcore.obj
 0002:0000072c       ??_C@_0L@GAMG@SQLExecute?$AA@ 5f72d72c     dbcore.obj
 0002:00000738       ??_C@_0BB@GFLN@SQLExtendedFetch?$AA@ 5f72d738     dbcore.obj
 0002:0000074c       ??_C@_08GOJJ@SQLFetch?$AA@ 5f72d74c     dbcore.obj
 0002:00000758       ??_C@_0P@OLDJ@SQLFreeConnect?$AA@ 5f72d758     dbcore.obj
 0002:00000768       ??_C@_0L@INAL@SQLFreeEnv?$AA@ 5f72d768     dbcore.obj
 0002:00000774       ??_C@_0M@MGLM@SQLFreeStmt?$AA@ 5f72d774     dbcore.obj
 0002:00000780       ??_C@_0BB@OPHN@SQLGetCursorName?$AA@ 5f72d780     dbcore.obj
 0002:00000794       ??_C@_0L@DICO@SQLGetData?$AA@ 5f72d794     dbcore.obj
 0002:000007a0       ??_C@_0BA@BFEC@SQLGetFunctions?$AA@ 5f72d7a0     dbcore.obj
 0002:000007b0       ??_C@_0L@GAEG@SQLGetInfo?$AA@ 5f72d7b0     dbcore.obj
 0002:000007bc       ??_C@_0P@DHOM@SQLMoreResults?$AA@ 5f72d7bc     dbcore.obj
 0002:000007cc       ??_C@_0BB@NNDC@SQLNumResultCols?$AA@ 5f72d7cc     dbcore.obj
 0002:000007e0       ??_C@_0N@FCGN@SQLParamData?$AA@ 5f72d7e0     dbcore.obj
 0002:000007f0       ??_C@_0L@LPAG@SQLPrepare?$AA@ 5f72d7f0     dbcore.obj
 0002:000007fc       ??_C@_0L@ECJO@SQLPutData?$AA@ 5f72d7fc     dbcore.obj
 0002:00000808       ??_C@_0M@PBLO@SQLRowCount?$AA@ 5f72d808     dbcore.obj
 0002:00000814       ??_C@_0BE@KHG@SQLSetConnectOption?$AA@ 5f72d814     dbcore.obj
 0002:00000828       ??_C@_09GLHE@SQLSetPos?$AA@ 5f72d828     dbcore.obj
 0002:00000834       ??_C@_0BB@NDM@SQLSetStmtOption?$AA@ 5f72d834     dbcore.obj
 0002:00000848       ??_C@_0M@DAAC@SQLTransact?$AA@ 5f72d848     dbcore.obj
 0002:00000854       ??_C@_0BB@IFCH@SQLBindParameter?$AA@ 5f72d854     dbcore.obj
 0002:00000868       ??_C@_0N@PAMN@SQLNumParams?$AA@ 5f72d868     dbcore.obj
 0002:00000878       ??_C@_0BB@FOFF@SQLGetStmtOption?$AA@ 5f72d878     dbcore.obj
 0002:00000894       ??_7_AFX_DB_STATE@@6B@     5f72d894     dbcore.obj
 0002:00000898       ??_C@_03HHKO@?$CFs?6?$AA@  5f72d898     dbcore.obj
 0002:000008a4       ??_7CDBException@@6B@      5f72d8a4     dbcore.obj
 0002:000008cc       ??_7CNoTrackObject@@6B@    5f72d8cc     dbcore.obj
 0002:000008d0       ??_C@_06LPPO@State?3?$AA@  5f72d8d0     dbcore.obj
 0002:000008d8       ??_C@_01BJG@?6?$AA@        5f72d8d8     dbcore.obj
 0002:000008dc       ??_C@_0BE@DKOK@?0Native?3?$CFld?0Origin?3?$AA@ 5f72d8dc     dbcore.obj
 0002:000008f0       ??_C@_05NOEI@00000?$AA@    5f72d8f0     dbcore.obj
 0002:000008fc       ??_7CDatabase@@6B@         5f72d8fc     dbcore.obj
 0002:0000092c       ??_C@_05LDGB@?$DLDSN?$DN?$AA@ 5f72d92c     dbcore.obj
 0002:00000934       ??_C@_02DILL@?$CFs?$AA@    5f72d934     dbcore.obj
 0002:00000938       ??_C@_0DB@JAJD@Error?3?5Missing?5?8ODBC?8?5prefix?5on?5@ 5f72d938     dbcore.obj
 0002:0000096c       ??_C@_0DJ@GKAP@Error?3?5SQLFreeEnv?5failure?5ignore@ 5f72d96c     dbcore.obj
 0002:000009a8       ??_C@_0EG@KPGE@Error?3?5exception?5by?5CDatabase?3?3C@ 5f72d9a8     dbcore.obj
 0002:000009f0       ??_C@_0CC@OCAA@Warning?3?5ODBC?5Success?5With?5Info?0@ 5f72d9f0     dbcore.obj
 0002:00000a14       ??_C@_0DB@KFIB@Warning?3?5Failure?5setting?5read?5on@ 5f72da14     dbcore.obj
 0002:00000a48       ??_C@_0CJ@ICAI@Warning?3?5Failure?5setting?5login?5t@ 5f72da48     dbcore.obj
 0002:00000a74       ??_C@_0N@PKHK@odbccall?4txt?$AA@ 5f72da74     dbcore.obj
 0002:00000a84       ??_C@_0EK@BBMC@Error?3?5No?5default?5window?5?$CIAfxGet@ 5f72da84     dbcore.obj
 0002:00000ad0       ??_C@_0P@NHLG@?0?5Version?3?5?$CFs?6?$AA@ 5f72dad0     dbcore.obj
 0002:00000ae0       ??_C@_09FDEN@DBMS?3?5?$CFs?6?$AA@ 5f72dae0     dbcore.obj
 0002:00000aec       ??_C@_0CD@KCJE@Warning?3?5data?5source?5is?5readonly@ 5f72daec     dbcore.obj
 0002:00000b10       ??_C@_01PCJP@Y?$AA@        5f72db10     dbcore.obj
 0002:00000b14       ??_C@_0BI@MNAB@?6?7henvAllConnections?5?$DN?5?$AA@ 5f72db14     dbcore.obj
 0002:00000b2c       ??_C@_0BA@LDLC@?6?7nAllocated?5?$DN?5?$AA@ 5f72db2c     dbcore.obj
 0002:00000b3c       ??_C@_0L@OKHO@?6with?5env?3?$AA@ 5f72db3c     dbcore.obj
 0002:00000b48       ??_C@_0BF@DMHA@?6m_dwQueryTimeout?5?$DN?5?$AA@ 5f72db48     dbcore.obj
 0002:00000b60       ??_C@_0BF@BECC@?6m_dwLoginTimeout?5?$DN?5?$AA@ 5f72db60     dbcore.obj
 0002:00000b78       ??_C@_0BK@IHG@?6m_bTransactionPending?5?$DN?5?$AA@ 5f72db78     dbcore.obj
 0002:00000b94       ??_C@_0BE@HNE@?6m_bTransactions?5?$DN?5?$AA@ 5f72db94     dbcore.obj
 0002:00000ba8       ??_C@_0BB@FGMM@?6m_bUpdatable?5?$DN?5?$AA@ 5f72dba8     dbcore.obj
 0002:00000bbc       ??_C@_0BB@MLGK@?6m_strConnect?5?$DN?5?$AA@ 5f72dbbc     dbcore.obj
 0002:00000bd0       ??_C@_09DBDF@m_hdbc?5?$DN?5?$AA@ 5f72dbd0     dbcore.obj
 0002:00000be4       ??_7CRecordset@@6B@        5f72dbe4     dbcore.obj
 0002:00000c4c       ??_C@_0CM@IFBK@Error?3?5Exception?5ignored?5in?5?$HOCRe@ 5f72dc4c     dbcore.obj
 0002:00000c78       ??_C@_0CI@FBKI@?6to?5Close?5or?5memory?5leaks?5will?5r@ 5f72dc78     dbcore.obj
 0002:00000ca0       ??_C@_0CP@EMLF@?6Use?5of?5multi?5row?5fetch?5requires@ 5f72dca0     dbcore.obj
 0002:00000cd0       ??_C@_0DD@JAID@?6WARNING?3?5Close?5called?5implicitl@ 5f72dcd0     dbcore.obj
 0002:00000d04       ??_C@_0EB@JOFO@WARNING?3?5CRecordset?5not?5found?5in@ 5f72dd04     dbcore.obj
 0002:00000d48       ??_C@_0DB@LKMN@Error?3?5SQLNumResultCols?5failed?5d@ 5f72dd48     dbcore.obj
 0002:00000d7c       ??_C@_0CC@LBHG@Warning?3?5ODBC?5Success?5With?5Info?0@ 5f72dd7c     dbcore.obj
 0002:00000da0       ??_C@_0CC@PFCL@Error?3?5fetching?5row?5from?5server?4@ 5f72dda0     dbcore.obj
 0002:00000dc4       ??_C@_0DA@PPCC@Error?3?5field?5data?5truncated?5duri@ 5f72ddc4     dbcore.obj
 0002:00000df4       ??_C@_0CG@LDBG@Error?3?5GetBookmark?5operation?5fai@ 5f72ddf4     dbcore.obj
 0002:00000e1c       ??_C@_0DM@NDCP@Error?3?5attempt?5to?5lock?5record?5fa@ 5f72de1c     dbcore.obj
 0002:00000e58       ??_C@_0CP@DMCL@Error?3?5Edit?5attempt?5failed?5?9?5not@ 5f72de58     dbcore.obj
 0002:00000e88       ??_C@_0DI@HNOF@Error?3?5must?5enter?5Edit?5or?5AddNew@ 5f72de88     dbcore.obj
 0002:00000ec0       ??_C@_0EA@HBMB@Error?3?5attempted?5to?5delete?5while@ 5f72dec0     dbcore.obj
 0002:00000f00       ??_C@_0CH@IBHN@Error?3?5attempt?5FlushResultSet?5fa@ 5f72df00     dbcore.obj
 0002:00000f28       ??_C@_0CA@OHDE@Error?3?5Requery?5attempt?5failed?4?6?$AA@ 5f72df28     dbcore.obj
 0002:00000f48       ??_C@_00A@?$AA@            5f72df48     dbcore.obj
 0002:00000f4c       ??_C@_0DC@BJBD@Warning?3?5Setting?5forwardOnly?5rec@ 5f72df4c     dbcore.obj
 0002:00000f80       ??_C@_0DA@LMIK@Error?3?5CDatabase?5create?5for?5CRec@ 5f72df80     dbcore.obj
 0002:00000fb0       ??_C@_0DH@FPLF@Error?3?5ODBC?5failure?5checking?5for@ 5f72dfb0     dbcore.obj
 0002:00000fe8       ??_C@_0CH@KFOF@?7Marking?5CRecordset?5as?5not?5updat@ 5f72dfe8     dbcore.obj
 0002:00001010       ??_C@_0CJ@BALP@Warning?3?5Concurrency?5changed?5by?5@ 5f72e010     dbcore.obj
 0002:0000103c       ??_C@_0DE@DFFH@Error?3?5ODBC?5failure?5on?5SQLPrepar@ 5f72e03c     dbcore.obj
 0002:00001070       ??_C@_0DE@LDDI@Error?3?5ODBC?5failure?5setting?5reco@ 5f72e070     dbcore.obj
 0002:000010a4       ??_C@_0CH@JGDM@Warning?3?5Setting?5recordset?5read?5@ 5f72e0a4     dbcore.obj
 0002:000010cc       ??_C@_0DJ@GKLE@Warning?3?5Driver?5does?5not?5support@ 5f72e0cc     dbcore.obj
 0002:00001108       ??_C@_0BI@EIOA@for?5use?5with?5SQLFetch?4?6?$AA@ 5f72e108     dbcore.obj
 0002:00001120       ??_C@_0DI@PHNH@and?1or?5cursor?5library?5not?5loaded@ 5f72e120     dbcore.obj
 0002:00001158       ??_C@_0DD@KIDP@Warning?3?5SQLExtendedFetch?5not?5su@ 5f72e158     dbcore.obj
 0002:0000118c       ??_C@_0EC@ENHP@Error?3?5ODBC?5failure?5determining?5@ 5f72e18c     dbcore.obj
 0002:000011d0       ??_C@_0CN@MMNF@Error?3?5ODBC?5failure?5getting?5fiel@ 5f72e1d0     dbcore.obj
 0002:00001200       ??_C@_0BO@OJF@Error?3?5Can?8t?5get?5field?5info?4?6?$AA@ 5f72e200     dbcore.obj
 0002:00001220       ??_C@_0CH@FBFK@Error?3?5Can?8t?5enable?5bookmark?5sup@ 5f72e220     dbcore.obj
 0002:00001248       ??_C@_0DE@LOJN@Error?3?5ODBC?5failure?5setting?5reco@ 5f72e248     dbcore.obj
 0002:0000127c       ??_C@_0DO@CDMH@Warning?3?5locking?5not?5supported?0?5@ 5f72e27c     dbcore.obj
 0002:000012bc       ??_C@_0DG@DPND@Error?3?5ODBC?5failure?5checking?5rec@ 5f72e2bc     dbcore.obj
 0002:000012f4       ??_C@_0DG@DIEO@Warning?3?5SQL?5contains?5join?0?5reco@ 5f72e2f4     dbcore.obj
 0002:0000132c       ??_C@_0DL@MOFF@Warning?3?5SQL?5contains?5?8?5UNION?5?8?0@ 5f72e32c     dbcore.obj
 0002:00001368       ??_C@_07CBOJ@?5UNION?5?$AA@ 5f72e368     dbcore.obj
 0002:00001370       ??_C@_0DO@EPAM@Warning?3?5SQL?5contains?5?8?5GROUP?5BY@ 5f72e370     dbcore.obj
 0002:000013b0       ??_C@_0L@GEHL@?5GROUP?5BY?5?$AA@ 5f72e3b0     dbcore.obj
 0002:000013bc       ??_C@_0DF@PAPE@Warning?3?5Missing?5?8?5FROM?5?8?0?5recor@ 5f72e3bc     dbcore.obj
 0002:000013f4       ??_C@_06FHM@?5JOIN?5?$AA@  5f72e3f4     dbcore.obj
 0002:000013fc       ??_C@_0CG@JONH@Error?3?5attempted?5to?5move?5before?5@ 5f72e3fc     dbcore.obj
 0002:00001424       ??_C@_0CE@ELBP@Error?3?5attempted?5to?5move?5past?5EO@ 5f72e424     dbcore.obj
 0002:00001448       ??_C@_0DJ@JCEJ@Error?3?5attempted?5to?5position?5cur@ 5f72e448     dbcore.obj
 0002:00001484       ??_C@_0DH@HGN@Error?3?5forward?9only?5recordsets?5o@ 5f72e484     dbcore.obj
 0002:000014bc       ??_C@_0CO@HBII@Error?3?5no?5field?5names?5?9?5at?5least@ 5f72e4bc     dbcore.obj
 0002:000014ec       ??_C@_01KMAE@?0?$AA@       5f72e4ec     dbcore.obj
 0002:000014f0       ??_C@_0EJ@LAA@Warning?3?5Setting?5recordset?5read?5@ 5f72e4f0     dbcore.obj
 0002:0000153c       ??_C@_0CC@NBNH@?7Will?5use?5positioned?5update?5SQL?4@ 5f72e53c     dbcore.obj
 0002:00001560       ??_C@_0EB@HMHM@Warning?3?5Can?8t?5use?5SQLSetPos?5due@ 5f72e560     dbcore.obj
 0002:000015a4       ??_C@_0CB@NKLD@Error?3?5failure?5updating?5record?4?6@ 5f72e5a4     dbcore.obj
 0002:000015c8       ??_C@_0CO@KNLC@Error?3?5failure?5to?5allocate?5updat@ 5f72e5c8     dbcore.obj
 0002:000015f8       ??_C@_0BD@CPP@?5WHERE?5CURRENT?5OF?5?$AA@ 5f72e5f8     dbcore.obj
 0002:0000160c       ??_C@_05DNFI@?5SET?5?$AA@  5f72e60c     dbcore.obj
 0002:00001614       ??_C@_07EKDD@UPDATE?5?$AA@ 5f72e614     dbcore.obj
 0002:0000161c       ??_C@_09CGAE@?5VALUES?5?$CI?$AA@ 5f72e61c     dbcore.obj
 0002:00001628       ??_C@_02NDAK@?5?$CI?$AA@   5f72e628     dbcore.obj
 0002:0000162c       ??_C@_0N@KHCN@INSERT?5INTO?5?$AA@ 5f72e62c     dbcore.obj
 0002:0000163c       ??_C@_0N@MCBO@DELETE?5FROM?5?$AA@ 5f72e63c     dbcore.obj
 0002:0000164c       ??_C@_0DN@EOJO@Warning?3?5?$CFu?5rows?5affected?5by?5upd@ 5f72e64c     dbcore.obj
 0002:0000168c       ??_C@_0DK@OEHO@Error?3?5failure?5handling?5long?5bin@ 5f72e68c     dbcore.obj
 0002:000016c8       ??_C@_0ED@MCNJ@Error?3?5attempting?5to?5update?5reco@ 5f72e6c8     dbcore.obj
 0002:0000170c       ??_C@_0DD@IDOM@Error?3?5attempted?5to?5update?5a?5rea@ 5f72e70c     dbcore.obj
 0002:00001740       ??_C@_0DM@OKHE@Error?3?5attempted?5to?5add?5a?5record@ 5f72e740     dbcore.obj
 0002:0000177c       ??_C@_0CH@NCA@?7Data?5already?5fetched?5for?5this?5f@ 5f72e77c     dbcore.obj
 0002:000017a4       ??_C@_0DE@MBPN@Error?3?5GetFieldValue?5operation?5f@ 5f72e7a4     dbcore.obj
 0002:000017d8       ??_C@_0CO@IONN@Warning?3?5ODBC?5Success?5With?5Info?5@ 5f72e7d8     dbcore.obj
 0002:00001808       ??_C@_0BA@BGHA@with?5database?3?5?$AA@ 5f72e808     dbcore.obj
 0002:00001818       ??_C@_0BC@MKGN@with?5no?5database?6?$AA@ 5f72e818     dbcore.obj
 0002:0000182c       ??_C@_0CP@HPBB@?6Dump?5values?5for?5each?5field?5in?5c@ 5f72e82c     dbcore.obj
 0002:0000185c       ??_C@_0BC@JNKN@?6m_hstmtUpdate?5?$DN?5?$AA@ 5f72e85c     dbcore.obj
 0002:00001870       ??_C@_0BE@OFAF@?6m_strCursorName?5?$DN?5?$AA@ 5f72e870     dbcore.obj
 0002:00001884       ??_C@_0BA@CDEP@?6m_nEditMode?5?$DN?5?$AA@ 5f72e884     dbcore.obj
 0002:00001894       ??_C@_0BA@GJB@?6m_bLockMode?5?$DN?5?$AA@ 5f72e894     dbcore.obj
 0002:000018a4       ??_C@_0P@NFAJ@?6m_bDeleted?5?$DN?5?$AA@ 5f72e8a4     dbcore.obj
 0002:000018b4       ??_C@_0L@IPIJ@?6m_bBOF?5?$DN?5?$AA@ 5f72e8b4     dbcore.obj
 0002:000018c0       ??_C@_0L@GHOJ@?6m_bEOF?5?$DN?5?$AA@ 5f72e8c0     dbcore.obj
 0002:000018cc       ??_C@_0O@DPF@?6m_nParams?5?$DN?5?$AA@ 5f72e8cc     dbcore.obj
 0002:000018dc       ??_C@_0BD@GPPK@?6m_nFieldsBound?5?$DN?5?$AA@ 5f72e8dc     dbcore.obj
 0002:000018f0       ??_C@_0O@ECP@?6m_nFields?5?$DN?5?$AA@ 5f72e8f0     dbcore.obj
 0002:00001900       ??_C@_0BC@IMFD@?6m_bAppendable?5?$DN?5?$AA@ 5f72e900     dbcore.obj
 0002:00001914       ??_C@_0BC@CBKM@?6m_bScrollable?5?$DN?5?$AA@ 5f72e914     dbcore.obj
 0002:00001928       ??_C@_0M@CNKH@?6m_lOpen?5?$DN?5?$AA@ 5f72e928     dbcore.obj
 0002:00001934       ??_C@_0BD@DHNL@?6m_bRecordsetDb?5?$DN?5?$AA@ 5f72e934     dbcore.obj
 0002:00001948       ??_C@_0M@JKLH@?6m_hstmt?5?$DN?5?$AA@ 5f72e948     dbcore.obj
 0002:00001954       ??_C@_0N@MDHJ@?6m_strSQL?5?$DN?5?$AA@ 5f72e954     dbcore.obj
 0002:00001964       ??_C@_0P@KPIA@m_nOpenType?5?$DN?5?$AA@ 5f72e964     dbcore.obj
 0002:00001974       ??_C@_0DL@JHHP@Error?3?5SetSynchronousMode?5is?5obs@ 5f72e974     dbcore.obj
 0002:000019b0       ??_C@_0BP@INDE@E?3?2msdev?2mfc?2include?2afxtls_?4h?$AA@ 5f72e9b0     dbcore.obj
 0002:000019d0       ??_C@_0CP@MBLH@Error?3?5field?5address?5?$CIcolumn?5?$CFu?$CJ@ 5f72e9d0     dbrfx.obj
 0002:00001a00       ??_C@_03FGJK@?5?$DN?5?$AA@ 5f72ea00     dbrfx.obj
 0002:00001a04       ??_C@_0DI@MFHF@Error?3?5CString?5buffer?5?$CIcolumn?5?$CFu@ 5f72ea04     dbrfx.obj
 0002:00001a3c       ??_C@_0CP@KHPL@Warning?3?5CString?5converted?5from?5@ 5f72ea3c     dbrfx.obj
 0002:00001a6c       ??_C@_0CL@KDPB@Warning?3?5int?5converted?5from?5SQL?5@ 5f72ea6c     dbrfx.obj
 0002:00001a98       ??_C@_0CM@CDOP@Warning?3?5long?5converted?5from?5SQL@ 5f72ea98     dbrfx.obj
 0002:00001ac4       ??_C@_0CM@DDAL@Warning?3?5BYTE?5converted?5from?5SQL@ 5f72eac4     dbrfx.obj
 0002:00001af0       ??_C@_0CM@HOOD@Warning?3?5BOOL?5converted?5from?5SQL@ 5f72eaf0     dbrfx.obj
 0002:00001b1c       ??_C@_01PKAG@?3?$AA@       5f72eb1c     dbrfx.obj
 0002:00001b20       ??_C@_0DC@MJOF@Warning?3?5CByteArray?5converted?5fr@ 5f72eb20     dbrfx.obj
 0002:00001b54       ??_C@_0CB@NGEA@Warning?3?5ignoring?5milliseconds?4?6@ 5f72eb54     dbrfx.obj
 0002:00001b78       ??_C@_0DJ@MLFM@Warning?3?5date?5value?5out?5of?5range@ 5f72eb78     dbrfx.obj
 0002:00001bb4       ??_C@_0CN@PMCD@Warning?3?5CTime?5converted?5from?5SQ@ 5f72ebb4     dbrfx.obj
 0002:00001be4       ??_C@_0N@OGBI@?4fraction?5?$DN?5?$AA@ 5f72ebe4     dbrfx.obj
 0002:00001bf4       ??_C@_0L@BFHB@?4second?5?$DN?5?$AA@ 5f72ebf4     dbrfx.obj
 0002:00001c00       ??_C@_0L@JFIG@?4minute?5?$DN?5?$AA@ 5f72ec00     dbrfx.obj
 0002:00001c0c       ??_C@_08PGJP@?4hour?5?$DN?5?$AA@ 5f72ec0c     dbrfx.obj
 0002:00001c18       ??_C@_07JEIM@?4day?5?$DN?5?$AA@ 5f72ec18     dbrfx.obj
 0002:00001c20       ??_C@_09DKMF@?4month?5?$DN?5?$AA@ 5f72ec20     dbrfx.obj
 0002:00001c2c       ??_C@_08DFNB@?4year?5?$DN?5?$AA@ 5f72ec2c     dbrfx.obj
 0002:00001c38       ??_C@_0DI@PGDH@Warning?3?5TIMESTAMP_STRUCT?5conver@ 5f72ec38     dbrfx.obj
 0002:00001c70       ??_C@_0M@JABG@State?301004?$AA@ 5f72ec70     dbrfx.obj
 0002:00001c90       ?messageMap@CRecordView@@1UAFX_MSGMAP@@B 5f72ec90     dbview.obj
 0002:00001c98       ?_messageEntries@CRecordView@@0PBUAFX_MSGMAP_ENTRY@@B 5f72ec98     dbview.obj
 0002:00001d70       ?classCRecordView@CRecordView@@2UCRuntimeClass@@B 5f72ed70     dbview.obj
 0002:00001d88       ??_C@_0M@EAFL@CRecordView?$AA@ 5f72ed88     dbview.obj
 0002:00001d9c       ??_7CRecordView@@6B@       5f72ed9c     dbview.obj
 0002:00001eb4       ??_C@_0CE@BOGL@Warning?3?5no?5listbox?5item?5selecte@ 5f72eeb4     dbview.obj
 0002:00001ed8       ??_C@_0CF@IFBC@Warning?3?5no?5combobox?5item?5select@ 5f72eed8     dbview.obj
 0002:00001f00       ??_C@_0DI@IJGE@Warning?3?5dialog?5data?5checkbox?5va@ 5f72ef00     dbview.obj
 0002:00001f38       ??_C@_0DK@CIE@Warning?3?5field?5NULL?5and?5checkbox@ 5f72ef38     dbview.obj
 0002:00001f74       ??_C@_0EA@FKPN@Warning?3?5checkbox?5value?5indeterm@ 5f72ef74     dbview.obj
 0002:00001fb4       ??_C@_0BE@JDG@?6m_bOnLastRecord?5?$DN?5?$AA@ 5f72efb4     dbview.obj
 0002:00001fc8       ??_C@_0BE@GCEL@m_bOnFirstRecord?5?$DN?5?$AA@ 5f72efc8     dbview.obj
 0002:00001ff0       ??_C@_0CN@LIHI@Warning?3?5float?5converted?5from?5SQ@ 5f72eff0     dbflt.obj
 0002:00002020       ??_C@_0CO@JONC@Warning?3?5double?5converted?5from?5S@ 5f72f020     dbflt.obj
 0002:00002050       ?classCLongBinary@CLongBinary@@2UCRuntimeClass@@B 5f72f050     dblong.obj
 0002:00002068       ??_C@_0M@DJA@CLongBinary?$AA@ 5f72f068     dblong.obj
 0002:0000207c       ??_7CLongBinary@@6B@       5f72f07c     dblong.obj
 0002:00002090       ??_C@_0BD@HHCG@?6m_dwDataLength?5?$DN?5?$AA@ 5f72f090     dblong.obj
 0002:000020a4       ??_C@_0L@DGJD@m_hData?5?$DN?5?$AA@ 5f72f0a4     dblong.obj
 0002:000020b4       ??_7CDBVariant@@6B@        5f72f0b4     dbvar.obj
 0002:00002108       ?classCDaoException@CDaoException@@2UCRuntimeClass@@B 5f72f108     daocore.obj
 0002:00002120       ?classCDaoWorkspace@CDaoWorkspace@@2UCRuntimeClass@@B 5f72f120     daocore.obj
 0002:00002138       ?classCDaoDatabase@CDaoDatabase@@2UCRuntimeClass@@B 5f72f138     daocore.obj
 0002:00002150       ?classCDaoTableDef@CDaoTableDef@@2UCRuntimeClass@@B 5f72f150     daocore.obj
 0002:00002168       ?classCDaoQueryDef@CDaoQueryDef@@2UCRuntimeClass@@B 5f72f168     daocore.obj
 0002:00002180       ?classCDaoRecordset@CDaoRecordset@@2UCRuntimeClass@@B 5f72f180     daocore.obj
 0002:00002198       ??_C@_0O@JOIL@CDaoRecordset?$AA@ 5f72f198     daocore.obj
 0002:000021a8       ??_C@_0N@NGH@CDaoQueryDef?$AA@ 5f72f1a8     daocore.obj
 0002:000021b8       ??_C@_0N@PHMG@CDaoTableDef?$AA@ 5f72f1b8     daocore.obj
 0002:000021c8       ??_C@_0N@DDLP@CDaoDatabase?$AA@ 5f72f1c8     daocore.obj
 0002:000021d8       ??_C@_0O@IEJG@CDaoWorkspace?$AA@ 5f72f1d8     daocore.obj
 0002:000021e8       ??_C@_0O@OIMH@CDaoException?$AA@ 5f72f1e8     daocore.obj
 0002:000021fc       ??_7_AFX_DAO_STATE@@6B@    5f72f1fc     daocore.obj
 0002:00002200       ??_C@_0O@IIOC@?6?7scode?5?$DN?5?$CFX?6?$AA@ 5f72f200     daocore.obj
 0002:00002210       ??_C@_0BJ@PFJI@?6?7In?5file?5?$CFhs?5on?5line?5?$CFd?$AA@ 5f72f210     daocore.obj
 0002:0000222c       ??_C@_05HNHB@?6?7?$CFhs?$AA@ 5f72f22c     daocore.obj
 0002:00002234       ??_C@_0BC@DBPE@?6DAO?5Call?5Failed?4?$AA@ 5f72f234     daocore.obj
 0002:00002248       ??_C@_0M@KDOI@scode?5?$DN?5?$CFX?6?$AA@ 5f72f248     daocore.obj
 0002:00002254       ??_C@_0BJ@JBPF@?6In?5file?5?$CFhs?5on?5line?5?$CFd?6?$AA@ 5f72f254     daocore.obj
 0002:00002270       ??_C@_04FDOH@?6?$CFhs?$AA@ 5f72f270     daocore.obj
 0002:00002278       ??_C@_0BE@GAIL@?6DAO?5Call?5Failed?4?6?7?$AA@ 5f72f278     daocore.obj
 0002:0000228c       ??_C@_0BD@JMBE@?6m_lHelpContext?5?$DN?5?$AA@ 5f72f28c     daocore.obj
 0002:000022a0       ??_C@_0BC@FOHM@?6m_strHelpFile?5?$DN?5?$AA@ 5f72f2a0     daocore.obj
 0002:000022b4       ??_C@_0BF@JHNL@?6m_strDescription?5?$DN?5?$AA@ 5f72f2b4     daocore.obj
 0002:000022cc       ??_C@_0BA@HMPD@?6m_strSource?5?$DN?5?$AA@ 5f72f2cc     daocore.obj
 0002:000022dc       ??_C@_0BB@CCFD@?6m_lErrorCode?5?$DN?5?$AA@ 5f72f2dc     daocore.obj
 0002:000022f0       ??_C@_0BE@OGG@a?5CDaoErrorInfo?5at?5?$AA@ 5f72f2f0     daocore.obj
 0002:00002304       ??_C@_0BJ@HLFP@?6b?5?$DN?5m_bIsolateODBCTrans?$AA@ 5f72f304     daocore.obj
 0002:00002320       ??_C@_0BC@HDK@?6m_strUserName?5?$DN?5?$AA@ 5f72f320     daocore.obj
 0002:00002334       ??_C@_0O@FEGP@?6m_strName?5?$DN?5?$AA@ 5f72f334     daocore.obj
 0002:00002344       ??_C@_0BI@EJIL@a?5CDaoWorkspaceInfo?5at?5?$AA@ 5f72f344     daocore.obj
 0002:0000235c       ??_C@_0BE@JLEN@?6m_nQueryTimeout?5?$DN?5?$AA@ 5f72f35c     daocore.obj
 0002:00002370       ??_C@_0BG@ILBM@?6m_lCollatingOrder?5?$DN?5?$AA@ 5f72f370     daocore.obj
 0002:00002388       ??_C@_0BB@LEGM@?6m_strVersion?5?$DN?5?$AA@ 5f72f388     daocore.obj
 0002:0000239c       ??_C@_0BH@FIEC@a?5CDaoDatabaseInfo?5at?5?$AA@ 5f72f39c     daocore.obj
 0002:000023b4       ??_C@_0BD@FJAC@?6m_lRecordCount?5?$DN?5?$AA@ 5f72f3b4     daocore.obj
 0002:000023c8       ??_C@_0BI@JMNH@?6m_strValidationText?5?$DN?5?$AA@ 5f72f3c8     daocore.obj
 0002:000023e0       ??_C@_0BI@NDBL@?6m_strValidationRule?5?$DN?5?$AA@ 5f72f3e0     daocore.obj
 0002:000023f8       ??_C@_0BG@FOBO@?6m_strSrcTableName?5?$DN?5?$AA@ 5f72f3f8     daocore.obj
 0002:00002410       ??_C@_0BG@PCL@?6m_dateLastUpdated?5?$DN?5?$AA@ 5f72f410     daocore.obj
 0002:00002428       ??_C@_0BG@FOFB@?6m_dateDateCreated?5?$DN?5?$AA@ 5f72f428     daocore.obj
 0002:00002440       ??_C@_0BC@KBNC@?6m_lAttributes?5?$DN?5?$AA@ 5f72f440     daocore.obj
 0002:00002454       ??_C@_0BH@JFIA@a?5CDaoTableDefInfo?5at?5?$AA@ 5f72f454     daocore.obj
 0002:0000246c       ??_C@_0BG@MHMB@?6m_strDefaultValue?5?$DN?5?$AA@ 5f72f46c     daocore.obj
 0002:00002484       ??_C@_0BF@HCFN@?6m_strSourceTable?5?$DN?5?$AA@ 5f72f484     daocore.obj
 0002:0000249c       ??_C@_0BF@NJHG@?6m_strSourceField?5?$DN?5?$AA@ 5f72f49c     daocore.obj
 0002:000024b4       ??_C@_0BF@KILJ@?6m_strForeignName?5?$DN?5?$AA@ 5f72f4b4     daocore.obj
 0002:000024cc       ??_C@_0BH@BCFG@?6m_bAllowZeroLength?5?$DN?5?$AA@ 5f72f4cc     daocore.obj
 0002:000024e4       ??_C@_0BA@OOHL@?6m_bRequired?5?$DN?5?$AA@ 5f72f4e4     daocore.obj
 0002:000024f4       ??_C@_0BH@IMAL@?6m_nOrdinalPosition?5?$DN?5?$AA@ 5f72f4f4     daocore.obj
 0002:0000250c       ??_C@_0M@EOEG@?6m_lSize?5?$DN?5?$AA@ 5f72f50c     daocore.obj
 0002:00002518       ??_C@_0M@MJB@?6m_nType?5?$DN?5?$AA@ 5f72f518     daocore.obj
 0002:00002524       ??_C@_0BE@PODE@a?5CDaoFieldInfo?5at?5?$AA@ 5f72f524     daocore.obj
 0002:00002538       ??_C@_0BC@ILAA@?6m_bDescending?5?$DN?5?$AA@ 5f72f538     daocore.obj
 0002:0000254c       ??_C@_0BK@KCFC@?5a?5CDaoIndexFieldInfo?5at?5?$AA@ 5f72f54c     daocore.obj
 0002:0000256c       ??_7CDaoIndexInfo@@6B@     5f72f56c     daocore.obj
 0002:00002574       ??_C@_0BF@LIJD@?6m_lDistinctCount?5?$DN?5?$AA@ 5f72f574     daocore.obj
 0002:0000258c       ??_C@_0P@DLHL@?6m_bForeign?5?$DN?5?$AA@ 5f72f58c     daocore.obj
 0002:0000259c       ??_C@_0BD@MAED@?6m_bIgnoreNulls?5?$DN?5?$AA@ 5f72f59c     daocore.obj
 0002:000025b0       ??_C@_0BB@FFL@?6m_bClustered?5?$DN?5?$AA@ 5f72f5b0     daocore.obj
 0002:000025c4       ??_C@_0O@NMC@?6m_bUnique?5?$DN?5?$AA@ 5f72f5c4     daocore.obj
 0002:000025d4       ??_C@_0P@FFEB@?6m_bPrimary?5?$DN?5?$AA@ 5f72f5d4     daocore.obj
 0002:000025e4       ??_C@_0BE@OGHD@a?5CDaoIndexInfo?5at?5?$AA@ 5f72f5e4     daocore.obj
 0002:000025f8       ??_C@_0BN@BEAM@?5a?5CDaoRelationFieldInfo?5at?5?$AA@ 5f72f5f8     daocore.obj
 0002:0000261c       ??_7CDaoRelationInfo@@6B@  5f72f61c     daocore.obj
 0002:00002624       ??_C@_0BG@NBH@?6m_strForeignTable?5?$DN?5?$AA@ 5f72f624     daocore.obj
 0002:0000263c       ??_C@_0P@CHOL@?6m_strTable?5?$DN?5?$AA@ 5f72f63c     daocore.obj
 0002:0000264c       ??_C@_0BH@ICPE@a?5CDaoRelationInfo?5at?5?$AA@ 5f72f64c     daocore.obj
 0002:00002664       ??_C@_0BD@BKGA@?6m_nODBCTimeout?5?$DN?5?$AA@ 5f72f664     daocore.obj
 0002:00002678       ??_C@_0BG@JDEE@?6m_bReturnsRecords?5?$DN?5?$AA@ 5f72f678     daocore.obj
 0002:00002690       ??_C@_0BC@DDHJ@?6m_dateCreated?5?$DN?5?$AA@ 5f72f690     daocore.obj
 0002:000026a4       ??_C@_0BH@OPB@a?5CDaoQueryDefInfo?5at?5?$AA@ 5f72f6a4     daocore.obj
 0002:000026bc       ??_C@_0P@MIHC@?6m_varValue?5?$DN?5?$AA@ 5f72f6bc     daocore.obj
 0002:000026cc       ??_C@_0BI@NAFD@a?5CDaoParameterInfo?5at?5?$AA@ 5f72f6cc     daocore.obj
 0002:000026ec       ??_7CDaoException@@6B@     5f72f6ec     daocore.obj
 0002:00002708       ??_C@_0CC@NFIM@m_pDAOErrors?9?$DOget_Count?$CI?$CGnErrors@ 5f72f708     daocore.obj
 0002:0000272c       ??_C@_0EB@MBDI@m_pDAOErrors?9?$DOget_Item?$CI?5COleVari@ 5f72f72c     daocore.obj
 0002:00002770       ??_C@_0DG@CEPE@pDaoState?9?$DOm_pDAODBEngine?9?$DOget_E@ 5f72f770     daocore.obj
 0002:000027a8       ??_C@_0DN@LLAK@m_pDAOError?9?$DOget_HelpContext?$CI?5?$CGm@ 5f72f7a8     daocore.obj
 0002:000027e8       ??_C@_0CJ@LALL@m_pDAOError?9?$DOget_HelpFile?$CI?$CGV_BST@ 5f72f7e8     daocore.obj
 0002:00002814       ??_C@_0CM@BAFD@m_pDAOError?9?$DOget_Description?$CI?$CGV_@ 5f72f814     daocore.obj
 0002:00002840       ??_C@_0CH@NNNO@m_pDAOError?9?$DOget_Source?$CI?$CGV_BSTR?$CI@ 5f72f840     daocore.obj
 0002:00002868       ??_C@_0DG@GHAH@m_pDAOError?9?$DOget_Number?$CI?5?$CGm_pErr@ 5f72f868     daocore.obj
 0002:000028a4       ??_7CDaoErrorInfo@@6B@     5f72f8a4     daocore.obj
 0002:000028a8       ??_C@_0BC@NJHN@Description?5?$DN?5?$CFs?6?$AA@ 5f72f8a8     daocore.obj
 0002:000028bc       ??_C@_0N@GFFD@Source?5?$DN?5?$CFs?6?$AA@ 5f72f8bc     daocore.obj
 0002:000028cc       ??_C@_0BC@CBKK@?6Error?5Code?5?$DN?5?$CFd?6?$AA@ 5f72f8cc     daocore.obj
 0002:000028e4       ??_7CDaoWorkspace@@6B@     5f72f8e4     daocore.obj
 0002:0000290c       ??_C@_0IA@IMA@pDaoState?9?$DOm_pDAODBEngine?9?$DO_30_C@ 5f72f90c     daocore.obj
 0002:0000298c       ??_C@_0CI@OLEJ@pDAOWorkspaces?9?$DOAppend?$CIm_pDAOWor@ 5f72f98c     daocore.obj
 0002:000029b4       ??_C@_0DL@KMOM@pDaoState?9?$DOm_pDAODBEngine?9?$DOget_W@ 5f72f9b4     daocore.obj
 0002:000029f0       ??_C@_0DC@BHKN@m_pDAOWorkspaces?9?$DOget_Item?$CIvar?0?5@ 5f72f9f0     daocore.obj
 0002:00002a24       ??_C@_0DO@NCLP@pDaoState?9?$DOm_pDAODBEngine?9?$DOget_W@ 5f72fa24     daocore.obj
 0002:00002a64       ??_C@_0BJ@BAIF@m_pDAOWorkspace?9?$DOClose?$CI?$CJ?$AA@ 5f72fa64     daocore.obj
 0002:00002a80       ??_C@_0DG@EKI@pDaoState?9?$DOm_pDAODBEngine?9?$DOget_V@ 5f72fa80     daocore.obj
 0002:00002ab8       ??_C@_0DG@POMJ@pDaoState?9?$DOm_pDAODBEngine?9?$DOget_I@ 5f72fab8     daocore.obj
 0002:00002af0       ??_C@_0DF@FAOI@pDaoState?9?$DOm_pDAODBEngine?9?$DOput_I@ 5f72faf0     daocore.obj
 0002:00002b28       ??_C@_0DJ@GIII@pDaoState?9?$DOm_pDAODBEngine?9?$DOput_D@ 5f72fb28     daocore.obj
 0002:00002b64       ??_C@_0DO@ONCK@pDaoState?9?$DOm_pDAODBEngine?9?$DOput_D@ 5f72fb64     daocore.obj
 0002:00002ba4       ??_C@_0DH@FIK@pDaoState?9?$DOm_pDAODBEngine?9?$DOget_L@ 5f72fba4     daocore.obj
 0002:00002bdc       ??_C@_0DG@FCKN@pDaoState?9?$DOm_pDAODBEngine?9?$DOput_L@ 5f72fbdc     daocore.obj
 0002:00002c14       ??_C@_0CJ@PIID@m_pDAOWorkspace?9?$DOget_Name?$CI?$CGV_BST@ 5f72fc14     daocore.obj
 0002:00002c40       ??_C@_0CN@LNMJ@m_pDAOWorkspace?9?$DOget_UserName?$CI?$CGV@ 5f72fc40     daocore.obj
 0002:00002c70       ??_C@_0GC@MAIK@m_pDAOWorkspace?9?$DOput_IsolateODBC@ 5f72fc70     daocore.obj
 0002:00002cd4       ??_C@_0DK@BNMM@m_pDAOWorkspace?9?$DOget_IsolateODBC@ 5f72fcd4     daocore.obj
 0002:00002d10       ??_C@_0PC@HCAP@pDaoState?9?$DOm_pDAODBEngine?9?$DOCompa@ 5f72fd10     daocore.obj
 0002:00002e04       ??_C@_0DN@CKIJ@pDaoState?9?$DOm_pDAODBEngine?9?$DORepai@ 5f72fe04     daocore.obj
 0002:00002e44       ??_C@_0DN@BCJE@pDaoState?9?$DOm_pDAODBEngine?9?$DOIdle?$CI@ 5f72fe44     daocore.obj
 0002:00002e84       ??_C@_0CG@MKCN@m_pDAOWorkspaces?9?$DOget_Count?$CI?$CGnFi@ 5f72fe84     daocore.obj
 0002:00002eac       ??_C@_0EH@MIPG@m_pDAOWorkspaces?9?$DOget_Item?$CI?5COle@ 5f72feac     daocore.obj
 0002:00002ef4       ??_C@_0EN@CDCO@m_pDAOWorkspaces?9?$DOget_Item?$CI?5COle@ 5f72fef4     daocore.obj
 0002:00002f44       ??_C@_0CF@NKKO@m_pDAODatabases?9?$DOget_Count?$CI?$CGnFie@ 5f72ff44     daocore.obj
 0002:00002f6c       ??_C@_0EF@MAIH@m_pDAODatabases?9?$DOget_Item?$CI?5COleV@ 5f72ff6c     daocore.obj
 0002:00002fb4       ??_C@_0EL@BNEE@m_pDAODatabases?9?$DOget_Item?$CI?5COleV@ 5f72ffb4     daocore.obj
 0002:00003000       ??_C@_0BO@IBKO@m_pDAOWorkspace?9?$DOBeginTrans?$CI?$CJ?$AA@ 5f730000     daocore.obj
 0002:00003020       ??_C@_0BO@ONLB@?$CIm_pDAOWorkspace?9?$DO?$CKpMethod?$CJ?$CI?$CJ?$AA@ 5f730020     daocore.obj
 0002:00003040       ??_C@_0CA@PBAE@m_pDAOWorkspace?9?$DOCommitTrans?$CI0?$CJ?$AA@ 5f730040     daocore.obj
 0002:00003060       ??_C@_0BM@BBEN@m_pDAOWorkspace?9?$DORollback?$CI?$CJ?$AA@ 5f730060     daocore.obj
 0002:0000307c       ??_C@_0CM@PHDL@pDAOWorkspace?9?$DOget_IsolateODBCTr@ 5f73007c     daocore.obj
 0002:000030a8       ??_C@_0CL@LFDC@pDAOWorkspace?9?$DOget_UserName?$CI?$CGV_B@ 5f7300a8     daocore.obj
 0002:000030d4       ??_C@_0CH@NIA@pDAOWorkspace?9?$DOget_Name?$CI?$CGV_BSTR?$CI@ 5f7300d4     daocore.obj
 0002:000030fc       ??_C@_0DB@FMO@m_pDAOWorkspace?9?$DOget_Databases?$CI?$CG@ 5f7300fc     daocore.obj
 0002:00003130       ??_C@_0CK@GLDA@pDAODatabase?9?$DOget_Connect?$CI?5?$CGV_BS@ 5f730130     daocore.obj
 0002:0000315c       ??_C@_0DJ@LMDF@pDAODatabase?9?$DOget_QueryTimeout?$CI?5@ 5f73015c     daocore.obj
 0002:00003198       ??_C@_0DN@CAFO@pDAODatabase?9?$DOget_CollatingOrder@ 5f730198     daocore.obj
 0002:000031d8       ??_C@_0CK@LGL@pDAODatabase?9?$DOget_Version?$CI?5?$CGV_BS@ 5f7301d8     daocore.obj
 0002:00003204       ??_C@_0CH@GLGK@pDAODatabase?9?$DOget_Transactions?$CI?$CG@ 5f730204     daocore.obj
 0002:0000322c       ??_C@_0CE@GDMB@pDAODatabase?9?$DOget_Updatable?$CI?$CGnBo@ 5f73022c     daocore.obj
 0002:00003250       ??_C@_0CG@GEI@pDAODatabase?9?$DOget_Name?$CI?$CGV_BSTR?$CI?$CG@ 5f730250     daocore.obj
 0002:00003278       ??_C@_0O@KPOJ@?6m_nStatus?5?$DN?5?$AA@ 5f730278     daocore.obj
 0002:00003288       ??_C@_0L@OLPD@?6m_bNew?5?$DN?5?$AA@ 5f730288     daocore.obj
 0002:00003294       ??_C@_0L@FNFF@m_bOpen?5?$DN?5?$AA@ 5f730294     daocore.obj
 0002:000032a4       ??_7CDaoDatabase@@6B@      5f7302a4     daocore.obj
 0002:000032c8       ??_C@_0IC@FKK@m_pWorkspace?9?$DOm_pDAOWorkspace?9?$DOC@ 5f7302c8     daocore.obj
 0002:0000334c       ??_C@_0LP@CIKN@m_pWorkspace?9?$DOm_pDAOWorkspace?9?$DOO@ 5f73034c     daocore.obj
 0002:0000340c       ??_C@_0BI@NBCE@m_pDAODatabase?9?$DOClose?$CI?$CJ?$AA@ 5f73040c     daocore.obj
 0002:00003424       ??_C@_0CL@ELFI@m_pDAODatabase?9?$DOget_Updatable?$CI?$CGn@ 5f730424     daocore.obj
 0002:00003450       ??_C@_0DB@POJO@m_pDAODatabase?9?$DOget_Transactions@ 5f730450     daocore.obj
 0002:00003484       ??_C@_0CI@FCO@m_pDAODatabase?9?$DOget_Name?$CI?$CGV_BSTR@ 5f730484     daocore.obj
 0002:000034ac       ??_C@_0CL@OIPD@m_pDAODatabase?9?$DOget_Connect?$CI?$CGV_B@ 5f7304ac     daocore.obj
 0002:000034d8       ??_C@_0CL@LDKH@m_pDAODatabase?9?$DOget_Version?$CI?$CGV_B@ 5f7304d8     daocore.obj
 0002:00003504       ??_C@_0DB@NKM@m_pDAODatabase?9?$DOget_QueryTimeout@ 5f730504     daocore.obj
 0002:00003538       ??_C@_0CL@CMOO@m_pDAODatabase?9?$DOput_QueryTimeout@ 5f730538     daocore.obj
 0002:00003564       ??_C@_0DH@EED@m_pDAODatabase?9?$DOget_RecordsAffec@ 5f730564     daocore.obj
 0002:0000359c       ??_C@_0CG@DPNF@m_pDAOTableDefs?9?$DODelete?$CIV_BSTR?$CI?$CG@ 5f73059c     daocore.obj
 0002:000035c4       ??_C@_0CG@PEFD@m_pDAOQueryDefs?9?$DODelete?$CIV_BSTR?$CI?$CG@ 5f7305c4     daocore.obj
 0002:000035f4       ??_7CDaoRelationFieldInfo@@6B@ 5f7305f4     daocore.obj
 0002:000035f8       ??_C@_0CG@KOHE@m_pDAORelations?9?$DOAppend?$CIpDAORela@ 5f7305f8     daocore.obj
 0002:00003620       ??_C@_0BO@PKCL@pDAOFields?9?$DOAppend?$CIpDAOField?$CJ?$AA@ 5f730620     daocore.obj
 0002:00003640       ??_C@_0CJ@GPBE@pDAOField?9?$DOput_ForeignName?$CIV_BST@ 5f730640     daocore.obj
 0002:0000366c       ??_C@_0JB@FHMF@pDAORelation?9?$DOCreateField?$CI?5COleV@ 5f73066c     daocore.obj
 0002:00003700       ??_C@_0CG@INKG@pDAORelation?9?$DOget_Fields?$CI?$CGpDAOFi@ 5f730700     daocore.obj
 0002:00003728       ??_C@_0NK@LJKP@m_pDAODatabase?9?$DOCreateRelation?$CI?5@ 5f730728     daocore.obj
 0002:00003804       ??_C@_0CG@BJFH@m_pDAORelations?9?$DODelete?$CIV_BSTR?$CI?$CG@ 5f730804     daocore.obj
 0002:0000382c       ??_C@_0EE@KEMK@m_pDAODatabase?9?$DOExecute?$CI?5V_BSTR?$CI@ 5f73082c     daocore.obj
 0002:00003870       ??_C@_0CF@JLMN@m_pDAOTableDefs?9?$DOget_Count?$CI?$CGnTab@ 5f730870     daocore.obj
 0002:00003898       ??_C@_0EF@FBLA@m_pDAOTableDefs?9?$DOget_Item?$CI?5COleV@ 5f730898     daocore.obj
 0002:000038e0       ??_C@_0EL@KPGC@m_pDAOTableDefs?9?$DOget_Item?$CI?5COleV@ 5f7308e0     daocore.obj
 0002:0000392c       ??_C@_0CI@LDJE@m_pDAORelations?9?$DOget_Count?$CI?$CGnRel@ 5f73092c     daocore.obj
 0002:00003954       ??_C@_0EF@IIIA@m_pDAORelations?9?$DOget_Item?$CI?5COleV@ 5f730954     daocore.obj
 0002:0000399c       ??_C@_0EL@IHJB@m_pDAORelations?9?$DOget_Item?$CI?5COleV@ 5f73099c     daocore.obj
 0002:000039e8       ??_C@_0CI@MEAB@m_pDAOQueryDefs?9?$DOget_Count?$CI?$CGnQue@ 5f7309e8     daocore.obj
 0002:00003a10       ??_C@_0EF@NBOE@m_pDAOQueryDefs?9?$DOget_Item?$CI?5COleV@ 5f730a10     daocore.obj
 0002:00003a58       ??_C@_0EL@IINM@m_pDAOQueryDefs?9?$DOget_Item?$CI?5COleV@ 5f730a58     daocore.obj
 0002:00003aa4       ??_C@_0DA@GLPP@m_pDAODatabase?9?$DOget_TableDefs?$CI?$CGm@ 5f730aa4     daocore.obj
 0002:00003ad4       ??_C@_0DN@PBMP@pDAOTableDef?9?$DOget_RecordCount?$CI?5?$CG@ 5f730ad4     daocore.obj
 0002:00003b14       ??_C@_0DB@KOFA@pDAOTableDef?9?$DOget_ValidationText@ 5f730b14     daocore.obj
 0002:00003b48       ??_C@_0DB@HJKE@pDAOTableDef?9?$DOget_ValidationRule@ 5f730b48     daocore.obj
 0002:00003b7c       ??_C@_0CK@LEHN@pDAOTableDef?9?$DOget_Connect?$CI?5?$CGV_BS@ 5f730b7c     daocore.obj
 0002:00003ba8       ??_C@_0DC@BFFJ@pDAOTableDef?9?$DOget_SourceTableNam@ 5f730ba8     daocore.obj
 0002:00003bdc       ??_C@_0CE@FNDA@pDAOTableDef?9?$DOget_LastUpdated?$CI?$CGv@ 5f730bdc     daocore.obj
 0002:00003c00       ??_C@_0CE@NEPA@pDAOTableDef?9?$DOget_DateCreated?$CI?$CGv@ 5f730c00     daocore.obj
 0002:00003c24       ??_C@_0DL@DLNJ@pDAOTableDef?9?$DOget_Attributes?$CI?5?$CGt@ 5f730c24     daocore.obj
 0002:00003c60       ??_C@_0CE@GAKL@pDAOTableDef?9?$DOget_Updatable?$CI?$CGnBo@ 5f730c60     daocore.obj
 0002:00003c84       ??_C@_0CG@GGLM@pDAOTableDef?9?$DOget_Name?$CI?$CGV_BSTR?$CI?$CG@ 5f730c84     daocore.obj
 0002:00003cac       ??_C@_0DA@JLIC@m_pDAODatabase?9?$DOget_Relations?$CI?$CGm@ 5f730cac     daocore.obj
 0002:00003cdc       ??_C@_0CK@LAFA@pDAOField?9?$DOget_ForeignName?$CI?$CGV_BS@ 5f730cdc     daocore.obj
 0002:00003d08       ??_C@_0CD@BJOA@pDAOField?9?$DOget_Name?$CI?$CGV_BSTR?$CI?$CGvar@ 5f730d08     daocore.obj
 0002:00003d2c       ??_C@_0DN@MJFF@pDAOFields?9?$DOget_Item?$CI?5COleVarian@ 5f730d2c     daocore.obj
 0002:00003d6c       ??_C@_0BP@FFPK@pDAOFields?9?$DOget_Count?$CI?$CGnCount?$CJ?$AA@ 5f730d6c     daocore.obj
 0002:00003d8c       ??_C@_0DG@DMNE@pDAORelation?9?$DOget_Attributes?$CI?5?$CGr@ 5f730d8c     daocore.obj
 0002:00003dc4       ??_C@_0CP@PIMH@pDAORelation?9?$DOget_ForeignTable?$CI?5@ 5f730dc4     daocore.obj
 0002:00003df4       ??_C@_0CH@LDAN@pDAORelation?9?$DOget_Table?$CI?$CGV_BSTR?$CI@ 5f730df4     daocore.obj
 0002:00003e1c       ??_C@_0CG@NDBG@pDAORelation?9?$DOget_Name?$CI?$CGV_BSTR?$CI?$CG@ 5f730e1c     daocore.obj
 0002:00003e44       ??_C@_0DA@BPAN@m_pDAODatabase?9?$DOget_QueryDefs?$CI?$CGm@ 5f730e44     daocore.obj
 0002:00003e74       ??_C@_0DE@DPOF@pDAOQueryDef?9?$DOget_Connect?$CI?$CGV_BST@ 5f730e74     daocore.obj
 0002:00003ea8       ??_C@_0CF@HFEL@pDAOQueryDef?9?$DOget_SQL?$CI?$CGV_BSTR?$CI?$CGv@ 5f730ea8     daocore.obj
 0002:00003ed0       ??_C@_0CJ@KFGF@pDAOQueryDef?9?$DOget_ReturnsRecords@ 5f730ed0     daocore.obj
 0002:00003efc       ??_C@_0CE@JGLG@pDAOQueryDef?9?$DOget_LastUpdated?$CI?$CGv@ 5f730efc     daocore.obj
 0002:00003f20       ??_C@_0CE@BPHG@pDAOQueryDef?9?$DOget_DateCreated?$CI?$CGv@ 5f730f20     daocore.obj
 0002:00003f44       ??_C@_0CE@KLCN@pDAOQueryDef?9?$DOget_Updatable?$CI?$CGnBo@ 5f730f44     daocore.obj
 0002:00003f68       ??_C@_0CO@FAJF@pDAOQueryDef?9?$DOget_Type?$CI?$CGquerydef@ 5f730f68     daocore.obj
 0002:00003f98       ??_C@_0CG@DIGJ@pDAOQueryDef?9?$DOget_Name?$CI?$CGV_BSTR?$CI?$CG@ 5f730f98     daocore.obj
 0002:00003fc4       ??_7CDaoTableDef@@6B@      5f730fc4     daocore.obj
 0002:00003fec       ??_C@_0MC@IBMF@m_pDatabase?9?$DOm_pDAODatabase?9?$DOCre@ 5f730fec     daocore.obj
 0002:000040b0       ??_C@_0CG@KMEO@pDAOTableDefs?9?$DOAppend?$CIm_pDAOTabl@ 5f7310b0     daocore.obj
 0002:000040d8       ??_C@_0DM@GNOH@m_pDatabase?9?$DOm_pDAODatabase?9?$DOget@ 5f7310d8     daocore.obj
 0002:00004114       ??_C@_0EK@DHEO@pDAOTableDefs?9?$DOget_Item?$CI?5COleVar@ 5f731114     daocore.obj
 0002:00004160       ??_C@_0CL@GMF@m_pDAOTableDef?9?$DOget_Updatable?$CI?$CGn@ 5f731160     daocore.obj
 0002:0000418c       ??_C@_0CH@LFFO@m_pDAOTableDef?9?$DOput_Name?$CIV_BSTR?$CI@ 5f73118c     daocore.obj
 0002:000041b4       ??_C@_0CI@GFNK@m_pDAOTableDef?9?$DOget_Name?$CI?$CGV_BSTR@ 5f7311b4     daocore.obj
 0002:000041dc       ??_C@_0DD@FHOC@m_pDAOTableDef?9?$DOput_SourceTableN@ 5f7311dc     daocore.obj
 0002:00004210       ??_C@_0DE@CBJH@m_pDAOTableDef?9?$DOget_SourceTableN@ 5f731210     daocore.obj
 0002:00004244       ??_C@_0CK@PHKK@m_pDAOTableDef?9?$DOput_Connect?$CIV_BS@ 5f731244     daocore.obj
 0002:00004270       ??_C@_0CL@KFGO@m_pDAOTableDef?9?$DOget_Connect?$CI?$CGV_B@ 5f731270     daocore.obj
 0002:0000429c       ??_C@_0CM@DGAH@m_pDAOTableDef?9?$DOput_Attributes?$CIl@ 5f73129c     daocore.obj
 0002:000042c8       ??_C@_0CN@EPFM@m_pDAOTableDef?9?$DOget_Attributes?$CI?$CG@ 5f7312c8     daocore.obj
 0002:000042f8       ??_C@_0CK@CKHH@m_pDAOTableDef?9?$DOget_DateCreated?$CI@ 5f7312f8     daocore.obj
 0002:00004324       ??_C@_0CK@ODEK@m_pDAOTableDef?9?$DOget_LastUpdated?$CI@ 5f731324     daocore.obj
 0002:00004350       ??_C@_0DC@EKFC@m_pDAOTableDef?9?$DOput_ValidationRu@ 5f731350     daocore.obj
 0002:00004384       ??_C@_0DD@LHDC@m_pDAOTableDef?9?$DOget_ValidationRu@ 5f731384     daocore.obj
 0002:000043b8       ??_C@_0DC@LOBP@m_pDAOTableDef?9?$DOput_ValidationTe@ 5f7313b8     daocore.obj
 0002:000043ec       ??_C@_0DD@GAMG@m_pDAOTableDef?9?$DOget_ValidationTe@ 5f7313ec     daocore.obj
 0002:00004420       ??_C@_0CP@NCFA@m_pDAOTableDef?9?$DOget_RecordCount?$CI@ 5f731420     daocore.obj
 0002:00004454       ??_7CDaoFieldInfo@@6B@     5f731454     daocore.obj
 0002:00004458       ??_C@_0CA@KBPE@m_pDAOFields?9?$DOAppend?$CIpDAOField?$CJ?$AA@ 5f731458     daocore.obj
 0002:00004478       ??_C@_0JF@NDIH@m_pDAOTableDef?9?$DOCreateField?$CI?5COl@ 5f731478     daocore.obj
 0002:00004510       ??_C@_0CD@MPAH@m_pDAOFields?9?$DODelete?$CIV_BSTR?$CI?$CGvar@ 5f731510     daocore.obj
 0002:00004534       ??_C@_0CB@GDE@m_pDAOIndexes?9?$DOAppend?$CIpDAOIndex?$CJ@ 5f731534     daocore.obj
 0002:00004558       ??_C@_0FF@LAGC@m_pDAOTableDef?9?$DOCreateIndex?$CI?5COl@ 5f731558     daocore.obj
 0002:000045b0       ??_C@_0CE@GGDB@m_pDAOIndexes?9?$DODelete?$CIV_BSTR?$CI?$CGva@ 5f7315b0     daocore.obj
 0002:000045d4       ??_C@_0CC@GCCM@m_pDAOFields?9?$DOget_Count?$CI?$CGnFields@ 5f7315d4     daocore.obj
 0002:000045f8       ??_C@_0DP@FPAO@m_pDAOFields?9?$DOget_Item?$CI?5COleVari@ 5f7315f8     daocore.obj
 0002:00004638       ??_C@_0EF@MHNO@m_pDAOFields?9?$DOget_Item?$CI?5COleVari@ 5f731638     daocore.obj
 0002:00004680       ??_C@_0CE@LMII@m_pDAOIndexes?9?$DOget_Count?$CI?$CGnIndex@ 5f731680     daocore.obj
 0002:000046a4       ??_C@_0EA@IAJA@m_pDAOIndexes?9?$DOget_Item?$CI?5COleVar@ 5f7316a4     daocore.obj
 0002:000046e4       ??_C@_0EG@GOCN@m_pDAOIndexes?9?$DOget_Item?$CI?5COleVar@ 5f7316e4     daocore.obj
 0002:0000472c       ??_C@_0BO@KAIF@m_pDAOTableDef?9?$DORefreshLink?$CI?$CJ?$AA@ 5f73172c     daocore.obj
 0002:0000474c       ??_C@_0CK@MDGM@m_pDAOTableDef?9?$DOget_Fields?$CI?$CGm_pD@ 5f73174c     daocore.obj
 0002:00004778       ??_C@_0CM@GLNB@m_pDAOTableDef?9?$DOget_Indexes?$CI?$CGm_p@ 5f731778     daocore.obj
 0002:000047ac       ??_7CDaoQueryDef@@6B@      5f7317ac     daocore.obj
 0002:000047e8       ??_C@_0GI@HNGJ@m_pDatabase?9?$DOm_pDAODatabase?9?$DOCre@ 5f7317e8     daocore.obj
 0002:00004850       ??_C@_0HN@FLN@m_pDatabase?9?$DOm_pDAODatabase?9?$DOCre@ 5f731850     daocore.obj
 0002:000048d0       ??_C@_0CG@FLGB@pDAOQueryDefs?9?$DOAppend?$CIm_pDAOQuer@ 5f7318d0     daocore.obj
 0002:000048f8       ??_C@_0DM@IIMB@m_pDatabase?9?$DOm_pDAODatabase?9?$DOget@ 5f7318f8     daocore.obj
 0002:00004934       ??_C@_0EO@KMBN@m_pDatabase?9?$DOm_pDAODatabase?9?$DOOpe@ 5f731934     daocore.obj
 0002:00004984       ??_C@_0HC@LEBM@m_pDatabase?9?$DOm_pDAODatabase?9?$DOCre@ 5f731984     daocore.obj
 0002:000049f8       ??_C@_0BI@GPHC@m_pDAOQueryDef?9?$DOClose?$CI?$CJ?$AA@ 5f7319f8     daocore.obj
 0002:00004a10       ??_C@_0CL@HEGE@m_pDAOQueryDef?9?$DOget_Updatable?$CI?$CGn@ 5f731a10     daocore.obj
 0002:00004a3c       ??_C@_0CI@DLAP@m_pDAOQueryDef?9?$DOget_Name?$CI?$CGV_BSTR@ 5f731a3c     daocore.obj
 0002:00004a64       ??_C@_0CH@GAJF@m_pDAOQueryDef?9?$DOput_Name?$CIV_BSTR?$CI@ 5f731a64     daocore.obj
 0002:00004a8c       ??_C@_0CH@BDHB@m_pDAOQueryDef?9?$DOget_SQL?$CI?$CGV_BSTR?$CI@ 5f731a8c     daocore.obj
 0002:00004ab4       ??_C@_0CG@HMBA@m_pDAOQueryDef?9?$DOput_SQL?$CIV_BSTR?$CI?$CG@ 5f731ab4     daocore.obj
 0002:00004adc       ??_C@_0CB@IFD@m_pDAOQueryDef?9?$DOget_Type?$CI?$CGnType?$CJ@ 5f731adc     daocore.obj
 0002:00004b00       ??_C@_0CK@ILJJ@m_pDAOQueryDef?9?$DOget_DateCreated?$CI@ 5f731b00     daocore.obj
 0002:00004b2c       ??_C@_0CK@ECKE@m_pDAOQueryDef?9?$DOget_LastUpdated?$CI@ 5f731b2c     daocore.obj
 0002:00004b58       ??_C@_0CL@NHMP@m_pDAOQueryDef?9?$DOget_Connect?$CI?$CGV_B@ 5f731b58     daocore.obj
 0002:00004b84       ??_C@_0CK@FGEE@m_pDAOQueryDef?9?$DOput_Connect?$CIV_BS@ 5f731b84     daocore.obj
 0002:00004bb0       ??_C@_0CL@ODLC@m_pDAOQueryDef?9?$DOget_ODBCTimeout?$CI@ 5f731bb0     daocore.obj
 0002:00004bdc       ??_C@_0CO@EFO@m_pDAOQueryDef?9?$DOput_ODBCTimeout?$CI@ 5f731bdc     daocore.obj
 0002:00004c0c       ??_C@_0DF@JBJO@m_pDAOQueryDef?9?$DOget_ReturnsRecor@ 5f731c0c     daocore.obj
 0002:00004c44       ??_C@_0FN@IFJL@m_pDAOQueryDef?9?$DOput_ReturnsRecor@ 5f731c44     daocore.obj
 0002:00004ca4       ??_C@_0DH@IBAL@m_pDAOQueryDef?9?$DOget_RecordsAffec@ 5f731ca4     daocore.obj
 0002:00004cdc       ??_C@_0DF@FIBD@m_pDAOQueryDef?9?$DOExecute?$CICOleVari@ 5f731cdc     daocore.obj
 0002:00004d14       ??_C@_0BP@JAF@pDAOParameter?9?$DOget_Value?$CI?$CGvar?$CJ?$AA@ 5f731d14     daocore.obj
 0002:00004d34       ??_C@_0EN@DKKA@m_pDAOParameters?9?$DOget_Item?$CI?5COle@ 5f731d34     daocore.obj
 0002:00004d84       ??_C@_0EH@EAEJ@m_pDAOParameters?9?$DOget_Item?$CI?5COle@ 5f731d84     daocore.obj
 0002:00004dcc       ??_C@_0CD@KIO@pDAOParameter?9?$DOput_Value?$CIvarValu@ 5f731dcc     daocore.obj
 0002:00004df0       ??_C@_0CK@MAHP@m_pDAOParameters?9?$DOget_Count?$CI?$CGnPa@ 5f731df0     daocore.obj
 0002:00004e1c       ??_C@_0CK@GCIC@m_pDAOQueryDef?9?$DOget_Fields?$CI?$CGm_pD@ 5f731e1c     daocore.obj
 0002:00004e48       ??_C@_0DC@LDGL@m_pDAOQueryDef?9?$DOget_Parameters?$CI?$CG@ 5f731e48     daocore.obj
 0002:00004e7c       ??_C@_0DB@JEPD@pDAOParameter?9?$DOget_Value?$CI?5?$CGparam@ 5f731e7c     daocore.obj
 0002:00004eb0       ??_C@_0CN@IAMG@pDAOParameter?9?$DOget_Type?$CI?5?$CGparami@ 5f731eb0     daocore.obj
 0002:00004ee0       ??_C@_0CH@MNLB@pDAOParameter?9?$DOget_Name?$CI?$CGV_BSTR?$CI@ 5f731ee0     daocore.obj
 0002:00004f0c       ??_7CDaoRecordset@@6B@     5f731f0c     daocore.obj
 0002:00004f8c       ??_C@_0IB@OLCO@m_pQueryDef?9?$DOm_pDAOQueryDef?9?$DO_30@ 5f731f8c     daocore.obj
 0002:00005010       ??_C@_0HN@DBDN@m_pTableDef?9?$DOm_pDAOTableDef?9?$DOOpe@ 5f732010     daocore.obj
 0002:00005090       ??_C@_0BJ@NGAG@m_pDAORecordset?9?$DOClose?$CI?$CJ?$AA@ 5f732090     daocore.obj
 0002:000050ac       ??_C@_0CO@ENEN@m_pDAORecordset?9?$DORequery?$CI_afxOpt@ 5f7320ac     daocore.obj
 0002:000050dc       ??_C@_0CC@EHJO@m_pDAORecordset?9?$DORequery?$CIvarDisp@ 5f7320dc     daocore.obj
 0002:00005100       ??_C@_0CA@OPCI@m_pDAORecordset?9?$DOget_BOF?$CI?$CGnBOF?$CJ?$AA@ 5f732100     daocore.obj
 0002:00005120       ??_C@_0CA@LKNJ@m_pDAORecordset?9?$DOget_EOF?$CI?$CGnEOF?$CJ?$AA@ 5f732120     daocore.obj
 0002:00005140       ??_C@_0CM@BOKG@m_pDAORecordset?9?$DOget_Updatable?$CI?$CG@ 5f732140     daocore.obj
 0002:0000516c       ??_C@_0DA@PJGA@m_pDAORecordset?9?$DOget_Restartable@ 5f73216c     daocore.obj
 0002:0000519c       ??_C@_0DC@DHEI@m_pDAORecordset?9?$DOget_Transaction@ 5f73219c     daocore.obj
 0002:000051d0       ??_C@_0DC@BDFH@m_pDAORecordset?9?$DOget_Bookmarkabl@ 5f7321d0     daocore.obj
 0002:00005204       ??_C@_0CJ@DDPM@m_pDAORecordset?9?$DOget_Name?$CI?$CGV_BST@ 5f732204     daocore.obj
 0002:00005230       ??_C@_0CC@NAA@m_pDAORecordset?9?$DOget_Type?$CI?$CGnType@ 5f732230     daocore.obj
 0002:00005254       ??_C@_0CK@OCGL@m_pDAORecordset?9?$DOget_EditMode?$CI?$CGn@ 5f732254     daocore.obj
 0002:00005280       ??_C@_0CL@EJNE@m_pDAORecordset?9?$DOget_DateCreated@ 5f732280     daocore.obj
 0002:000052ac       ??_C@_0CL@IAOJ@m_pDAORecordset?9?$DOget_LastUpdated@ 5f7322ac     daocore.obj
 0002:000052d8       ??_C@_0CP@EDLK@m_pDAORecordset?9?$DOget_LastModifie@ 5f7322d8     daocore.obj
 0002:00005308       ??_C@_0DD@KGH@m_pDAORecordset?9?$DOget_ValidationR@ 5f732308     daocore.obj
 0002:0000533c       ??_C@_0DD@POCK@m_pDAORecordset?9?$DOget_ValidationT@ 5f73233c     daocore.obj
 0002:00005370       ??_C@_0CK@NNM@m_pDAORecordset?9?$DOget_Index?$CI?$CGV_BS@ 5f732370     daocore.obj
 0002:0000539c       ??_C@_0CJ@CEAC@m_pDAORecordset?9?$DOput_Index?$CIV_BST@ 5f73239c     daocore.obj
 0002:000053c8       ??_C@_0DA@CFBI@m_pDAORecordset?9?$DOget_RecordCount@ 5f7323c8     daocore.obj
 0002:000053f8       ??_C@_0CL@BMFG@m_pDAORecordset?9?$DOget_Bookmark?$CI?$CGv@ 5f7323f8     daocore.obj
 0002:00005424       ??_C@_0DD@MOL@m_pDAORecordset?9?$DOput_Bookmark?$CI?$CGv@ 5f732424     daocore.obj
 0002:00005458       ??_C@_0DC@GDMD@m_pDAORecordset?9?$DOget_AbsolutePos@ 5f732458     daocore.obj
 0002:0000548c       ??_C@_0DB@GLNO@m_pDAORecordset?9?$DOput_AbsolutePos@ 5f73248c     daocore.obj
 0002:000054c0       ??_C@_0DB@LIAP@m_pDAORecordset?9?$DOget_PercentPosi@ 5f7324c0     daocore.obj
 0002:000054f4       ??_C@_0DA@MHMB@m_pDAORecordset?9?$DOput_PercentPosi@ 5f7324f4     daocore.obj
 0002:00005524       ??_C@_0CM@OLNL@m_pDAORecordset?9?$DOMove?$CIlRows?0?5COl@ 5f732524     daocore.obj
 0002:00005550       ??_C@_0CA@IGPM@m_pDAORecordset?9?$DO_30_MoveLast?$CI?$CJ?$AA@ 5f732550     daocore.obj
 0002:00005570       ??_C@_0BN@OKBK@m_pDAORecordset?9?$DOMoveFirst?$CI?$CJ?$AA@ 5f732570     daocore.obj
 0002:00005590       ??_C@_0CA@PGPJ@m_pDAORecordset?9?$DOMovePrevious?$CI?$CJ?$AA@ 5f732590     daocore.obj
 0002:000055b0       ??_C@_0BM@KCOP@m_pDAORecordset?9?$DOMoveNext?$CI?$CJ?$AA@ 5f7325b0     daocore.obj
 0002:000055cc       ??_C@_0CI@BDFN@m_pDAORecordset?9?$DOFindLast?$CIV_BSTR@ 5f7325cc     daocore.obj
 0002:000055f4       ??_C@_0CJ@NOGD@m_pDAORecordset?9?$DOFindFirst?$CIV_BST@ 5f7325f4     daocore.obj
 0002:00005620       ??_C@_0CM@CFIG@m_pDAORecordset?9?$DOFindPrevious?$CIV_@ 5f732620     daocore.obj
 0002:0000564c       ??_C@_0CI@IEGA@m_pDAORecordset?9?$DOFindNext?$CIV_BSTR@ 5f73264c     daocore.obj
 0002:00005674       ??_C@_0BKF@GBHJ@m_pDAORecordset?9?$DOSeek?$CIV_BSTR?$CI?$CGva@ 5f732674     daocore.obj
 0002:0000581c       ??_C@_0PE@MNIL@m_pDAORecordset?9?$DOSeek?$CIV_BSTR?$CI?$CGva@ 5f73281c     daocore.obj
 0002:00005910       ??_C@_0CE@GKGD@m_pDAORecordset?9?$DO_30_CancelUpdat@ 5f732910     daocore.obj
 0002:00005934       ??_C@_0FG@JILN@m_pDAORecordset?9?$DOput_LockEdits?$CI?5@ 5f732934     daocore.obj
 0002:0000598c       ??_C@_0CM@FJGM@m_pDAORecordset?9?$DOget_LockEdits?$CI?$CG@ 5f73298c     daocore.obj
 0002:000059b8       ??_C@_0DF@NEPL@m_pDAORecordset?9?$DOput_CacheStart?$CI@ 5f7329b8     daocore.obj
 0002:000059f0       ??_C@_0CN@BBCI@m_pDAORecordset?9?$DOget_CacheStart?$CI@ 5f7329f0     daocore.obj
 0002:00005a20       ??_C@_0CG@GPJG@m_pDAORecordset?9?$DOput_CacheSize?$CIl@ 5f732a20     daocore.obj
 0002:00005a48       ??_C@_0CH@FFJB@m_pDAORecordset?9?$DOget_CacheSize?$CI?$CG@ 5f732a48     daocore.obj
 0002:00005a70       ??_C@_0JP@FOGE@m_pDAORecordset?9?$DOFillCache?$CI?5pSiz@ 5f732a70     daocore.obj
 0002:00005b10       ??_C@_0BK@MEND@m_pDAORecordset?9?$DOAddNew?$CI?$CJ?$AA@ 5f732b10     daocore.obj
 0002:00005b2c       ??_C@_0BI@CNBL@m_pDAORecordset?9?$DOEdit?$CI?$CJ?$AA@ 5f732b2c     daocore.obj
 0002:00005b44       ??_C@_0BO@JCIA@m_pDAORecordset?9?$DO_30_Update?$CI?$CJ?$AA@ 5f732b44     daocore.obj
 0002:00005b64       ??_C@_0BK@DPAI@m_pDAORecordset?9?$DODelete?$CI?$CJ?$AA@ 5f732b64     daocore.obj
 0002:00005b80       ??_C@_0EK@CMJC@m_pDAORecordset?9?$DOget_Collect?$CI?5CO@ 5f732b80     daocore.obj
 0002:00005bcc       ??_C@_0EE@NBLG@m_pDAORecordset?9?$DOget_Collect?$CI?5CO@ 5f732bcc     daocore.obj
 0002:00005c10       ??_C@_0EJ@FHEM@m_pDAORecordset?9?$DOput_Collect?$CI?5CO@ 5f732c10     daocore.obj
 0002:00005c5c       ??_C@_0ED@ENAG@m_pDAORecordset?9?$DOput_Collect?$CI?5CO@ 5f732c5c     daocore.obj
 0002:00005ca0       ??_C@_0CL@KAMP@m_pDAORecordset?9?$DOget_Fields?$CI?$CGm_p@ 5f732ca0     daocore.obj
 0002:00005ccc       ??_C@_0DJ@FHAD@m_pTableDef?9?$DOm_pDAOTableDef?9?$DOget@ 5f732ccc     daocore.obj
 0002:00005d08       ??_C@_01FAJB@?$DL?$AA@     5f732d08     daocore.obj
 0002:00005d0c       ??_C@_0FI@LEEG@m_pDAORecordset?9?$DOQueryInterface?$CI@ 5f732d0c     daocore.obj
 0002:00005d64       ??_C@_0CI@ILFL@m_pDAORecordset?9?$DOget_NoMatch?$CI?$CGnN@ 5f732d64     daocore.obj
 0002:00005d8c       ??_C@_0CA@MLFB@?6m_bCheckCacheForDirtyFields?5?$DN?5?$AA@ 5f732d8c     daocore.obj
 0002:00005dac       ??_C@_0BF@FEP@?6m_strRequerySort?5?$DN?5?$AA@ 5f732dac     daocore.obj
 0002:00005dc4       ??_C@_0BH@NPKA@?6m_strRequeryFilter?5?$DN?5?$AA@ 5f732dc4     daocore.obj
 0002:00005ddc       ??_C@_0BE@OAFC@?6m_strRequerySQL?5?$DN?5?$AA@ 5f732ddc     daocore.obj
 0002:00005df0       ??_C@_0O@JOGM@?6m_strSort?5?$DN?5?$AA@ 5f732df0     daocore.obj
 0002:00005e00       ??_C@_0BA@ICBM@?6m_strFilter?5?$DN?5?$AA@ 5f732e00     daocore.obj
 0002:00005e10       ??_C@_0P@CAKJ@?6m_nOptions?5?$DN?5?$AA@ 5f732e10     daocore.obj
 0002:00005e20       ??_C@_0BD@FPPO@?6m_nDefaultType?5?$DN?5?$AA@ 5f732e20     daocore.obj
 0002:00005e34       ??_C@_0BA@DPMC@?6m_nOpenType?5?$DN?5?$AA@ 5f732e34     daocore.obj
 0002:00005e44       ??_C@_0M@NMDE@?6m_bOpen?5?$DN?5?$AA@ 5f732e44     daocore.obj
 0002:00005e50       ??_C@_0CN@LODG@pDAOField?9?$DOget_ValidationText?$CI?$CGV@ 5f732e50     daocore.obj
 0002:00005e80       ??_C@_0CN@EKHL@pDAOField?9?$DOget_ValidationRule?$CI?$CGV@ 5f732e80     daocore.obj
 0002:00005eb0       ??_C@_0CK@NMNF@pDAOField?9?$DOget_SourceTable?$CI?$CGV_BS@ 5f732eb0     daocore.obj
 0002:00005edc       ??_C@_0CK@NMGJ@pDAOField?9?$DOget_SourceField?$CI?$CGV_BS@ 5f732edc     daocore.obj
 0002:00005f08       ??_C@_0DN@PLFL@pDAOField?9?$DOget_CollatingOrder?$CI?5?$CG@ 5f732f08     daocore.obj
 0002:00005f48       ??_C@_0CH@BDEE@pDAOField?9?$DOget_AllowZeroLength?$CI?$CG@ 5f732f48     daocore.obj
 0002:00005f70       ??_C@_0CA@GJNH@pDAOField?9?$DOget_Required?$CI?$CGnBool?$CJ?$AA@ 5f732f70     daocore.obj
 0002:00005f90       ??_C@_0DP@GBEA@pDAOField?9?$DOget_OrdinalPosition?$CI?5@ 5f732f90     daocore.obj
 0002:00005fd0       ??_C@_0DE@DLJC@pDAOField?9?$DOget_Attributes?$CI?$CGfield@ 5f732fd0     daocore.obj
 0002:00006004       ??_C@_0CI@DFJD@pDAOField?9?$DOget_Size?$CI?$CGfieldinfo?4m@ 5f733004     daocore.obj
 0002:0000602c       ??_C@_0CI@LPDA@pDAOField?9?$DOget_Type?$CI?$CGfieldinfo?4m@ 5f73302c     daocore.obj
 0002:00006054       ??_C@_0CM@OIHD@pDAOField?9?$DOput_ValidationText?$CIV_@ 5f733054     daocore.obj
 0002:00006080       ??_C@_0CM@KFNC@pDAOField?9?$DOput_ValidationRule?$CIV_@ 5f733080     daocore.obj
 0002:000060ac       ??_C@_0CN@ECE@pDAOField?9?$DOput_AllowZeroLength?$CIA@ 5f7330ac     daocore.obj
 0002:000060dc       ??_C@_0CG@NDE@pDAOField?9?$DOput_Required?$CIAFX_DAO_@ 5f7330dc     daocore.obj
 0002:00006104       ??_C@_0DO@LDPI@pDAOField?9?$DOput_OrdinalPosition?$CI?5@ 5f733104     daocore.obj
 0002:00006144       ??_C@_0DD@KMNM@pDAOField?9?$DOput_Attributes?$CIfieldi@ 5f733144     daocore.obj
 0002:00006178       ??_C@_0CF@IAPF@?$CIpDAOField?9?$DO?$CKpMethod?$CJ?$CI?$CGV_BSTR?$CI?$CGv@ 5f733178     daocore.obj
 0002:000061a0       ??_C@_0CC@GCFC@pDAOField?9?$DOget_DefaultValue?$CI?$CGvar@ 5f7331a0     daocore.obj
 0002:000061c4       ??_C@_0CE@DCCL@?$CIpDAOField?9?$DO?$CKpMethod?$CJ?$CIV_BSTR?$CI?$CGva@ 5f7331c4     daocore.obj
 0002:000061e8       ??_C@_0CB@DPPD@pDAOField?9?$DOput_DefaultValue?$CIvar?$CJ@ 5f7331e8     daocore.obj
 0002:0000620c       ??_C@_0DL@MFON@pDAOIndex?9?$DOget_DistinctCount?$CI?5?$CGi@ 5f73320c     daocore.obj
 0002:00006248       ??_C@_0BP@GBPC@pDAOIndex?9?$DOget_Foreign?$CI?$CGnBool?$CJ?$AA@ 5f733248     daocore.obj
 0002:00006268       ??_C@_0CA@LEOO@pDAOIndex?9?$DOget_Required?$CI?$CGnBool?$CJ?$AA@ 5f733268     daocore.obj
 0002:00006288       ??_C@_0CD@PNHL@pDAOIndex?9?$DOget_IgnoreNulls?$CI?$CGnBoo@ 5f733288     daocore.obj
 0002:000062ac       ??_C@_0CB@MCH@pDAOIndex?9?$DOget_Clustered?$CI?$CGnBool?$CJ@ 5f7332ac     daocore.obj
 0002:000062d0       ??_C@_0BO@HDBC@pDAOIndex?9?$DOget_Unique?$CI?$CGnBool?$CJ?$AA@ 5f7332d0     daocore.obj
 0002:000062f0       ??_C@_0BP@JAAH@pDAOIndex?9?$DOget_Primary?$CI?$CGnBool?$CJ?$AA@ 5f7332f0     daocore.obj
 0002:00006310       ??_C@_0CD@MEGG@pDAOIndex?9?$DOget_Name?$CI?$CGV_BSTR?$CI?$CGvar@ 5f733310     daocore.obj
 0002:00006334       ??_C@_0CG@NMKH@pDAOIndex?9?$DOput_Required?$CIAFX_DAO_@ 5f733334     daocore.obj
 0002:0000635c       ??_C@_0CJ@GEID@pDAOIndex?9?$DOput_IgnoreNulls?$CIAFX_D@ 5f73335c     daocore.obj
 0002:00006388       ??_C@_0CH@PIFK@pDAOIndex?9?$DOput_Clustered?$CIAFX_DAO@ 5f733388     daocore.obj
 0002:000063b0       ??_C@_0CE@PPGA@pDAOIndex?9?$DOput_Unique?$CIAFX_DAO_TR@ 5f7333b0     daocore.obj
 0002:000063d4       ??_C@_0CF@ONFI@pDAOIndex?9?$DOput_Primary?$CIAFX_DAO_T@ 5f7333d4     daocore.obj
 0002:000063fc       ??_C@_0EJ@HLNA@var?4pdispVal?9?$DOQueryInterface?$CI?5gu@ 5f7333fc     daocore.obj
 0002:00006448       ??_C@_0BM@FLME@pDAOIndex?9?$DOget_Fields?$CI?$CGvar?$CJ?$AA@ 5f733448     daocore.obj
 0002:00006464       ??_C@_0CI@GIHF@pDAOField?9?$DOget_Attributes?$CI?$CGlAttr@ 5f733464     daocore.obj
 0002:0000648c       ??_C@_0DN@MHHF@var?4pdispVal?9?$DOQueryInterface?$CI?5gu@ 5f73348c     daocore.obj
 0002:000064cc       ??_C@_0DF@CLB@pDAOIndexFields?9?$DOget_Item?$CICOleVa@ 5f7334cc     daocore.obj
 0002:00006504       ??_C@_0CE@GNBF@pDAOIndexFields?9?$DOget_Count?$CI?$CGnCou@ 5f733504     daocore.obj
 0002:0000652c       ??_7CDaoIndexFieldInfo@@6B@ 5f73352c     daocore.obj
 0002:00006530       ??_C@_0CH@BPFN@pDAOField?9?$DOput_Attributes?$CIlAttri@ 5f733530     daocore.obj
 0002:00006558       ??_C@_0JA@MEIF@pDAOIndex?9?$DOCreateField?$CI?5COleVari@ 5f733558     daocore.obj
 0002:000065e8       ??_C@_0BH@FGDO@ICDAORecordset?4GetRows?$AA@ 5f7335e8     daocore.obj
 0002:00006600       ??_C@_0GH@DHEN@pCF2?9?$DOCreateInstanceLic?$CI?5NULL?0?5N@ 5f733600     daocore.obj
 0002:00006668       ??_C@_0GA@FMGC@?3?3CoGetClassObject?$CIclsidEngine?0?5@ 5f733668     daocore.obj
 0002:000066c8       ??_C@_0CF@NAPJ@mjgcqcejfchcijecpdhckcdjqigdejfc@ 5f7336c8     daocore.obj
 0002:000066f0       ??_C@_0CF@CBFC@mbmabptebkjcdlgtjmskjwtsdhjbmkmw@ 5f7336f0     daocore.obj
 0002:00006718       ??_C@_0BF@DC@?3?3CoInitialize?$CINULL?$CJ?$AA@ 5f733718     daocore.obj
 0002:00006740       ??_C@_09CGOK@?5DateTime?$AA@ 5f733740     daodfx.obj
 0002:0000674c       ??_C@_0M@BGKI@?5IEEEDouble?$AA@ 5f73374c     daodfx.obj
 0002:00006758       ??_C@_0M@GOBO@?5IEEESingle?$AA@ 5f733758     daodfx.obj
 0002:00006764       ??_C@_09GDCP@?5Currency?$AA@ 5f733764     daodfx.obj
 0002:00006770       ??_C@_05BJMF@?5Long?$AA@   5f733770     daodfx.obj
 0002:00006778       ??_C@_06KOJB@?5Short?$AA@  5f733778     daodfx.obj
 0002:00006780       ??_C@_05IGCC@?5Byte?$AA@   5f733780     daodfx.obj
 0002:00006788       ??_C@_04KDMA@?5Bit?$AA@    5f733788     daodfx.obj
 0002:00006790       ??_C@_0M@MOAI@?5LongBinary?$AA@ 5f733790     daodfx.obj
 0002:0000679c       ??_C@_05BJHD@?5Text?$AA@   5f73379c     daodfx.obj
 0002:000067a8       ?classCDaoRecordView@CDaoRecordView@@2UCRuntimeClass@@B 5f7337a8     daoview.obj
 0002:000067c0       ?messageMap@CDaoRecordView@@1UAFX_MSGMAP@@B 5f7337c0     daoview.obj
 0002:000067c8       ?_messageEntries@CDaoRecordView@@0PBUAFX_MSGMAP_ENTRY@@B 5f7337c8     daoview.obj
 0002:000068a0       ??_C@_0P@KPJP@CDaoRecordView?$AA@ 5f7338a0     daoview.obj
 0002:000068b4       ??_7CDaoRecordView@@6B@    5f7338b4     daoview.obj
 0002:000069cc       ??_C@_0DD@KKOA@Warning?3?5can?8t?5set?5checkbox?5valu@ 5f7339cc     daoview.obj
 0002:00006a00       ??_C@_0DD@LLGN@Warning?3?5can?8t?5set?5field?5NULL?5fo@ 5f733a00     daoview.obj
 0002:00006a34       ??_C@_0BE@CLIM@m_varBookmarkLast?5?$DN?$AA@ 5f733a34     daoview.obj
 0002:00006a48       ??_C@_0BF@EDLD@m_varBookmarkFirst?5?$DN?$AA@ 5f733a48     daoview.obj
 0002:00006a60       ??_C@_0BH@FBNH@m_varBookmarkCurrent?5?$DN?$AA@ 5f733a60     daoview.obj
 0002:00006a78       ??_C@_0M@LNMN@m_nStatus?5?$DN?$AA@ 5f733a78     daoview.obj
 0002:00006abc       ??_7type_info@@6B@         5f733abc     msvcrtd:ti_inst.obj
 0002:00006ac0       ??_C@_08JKC@crtdll?4c?$AA@ 5f733ac0     msvcrtd:crtdll.obj
 0002:00006ad0       _IID_IClassFactory2        5f733ad0     uuid:ocidl_i_guid4.obj
 0002:00006ae0       _LIBID_CJETSQLHELP         5f733ae0     daouuid:daouuid.obj
 0002:00006af0       _LIBID_CDAO                5f733af0     daouuid:daouuid.obj
 0002:00006b00       _LIBID_CDAO25              5f733b00     daouuid:daouuid.obj
 0002:00006b10       _BETA_LIBID_CDAO           5f733b10     daouuid:daouuid.obj
 0002:00006b20       _BETA_LIBID_CDAO25         5f733b20     daouuid:daouuid.obj
 0002:00006b30       _IID_IDAOStdObject         5f733b30     daouuid:daouuid.obj
 0002:00006b40       _IID_IDAOStdCollection     5f733b40     daouuid:daouuid.obj
 0002:00006b50       _CLSID_CDAODBEngine        5f733b50     daouuid:daouuid.obj
 0002:00006b60       _CLSID_CDAOPrivDBEngine    5f733b60     daouuid:daouuid.obj
 0002:00006b70       _CLSID_CDAOConnection      5f733b70     daouuid:daouuid.obj
 0002:00006b80       _CLSID_CDAOTableDef        5f733b80     daouuid:daouuid.obj
 0002:00006b90       _CLSID_CDAOField           5f733b90     daouuid:daouuid.obj
 0002:00006ba0       _CLSID_CDAOIndex           5f733ba0     daouuid:daouuid.obj
 0002:00006bb0       _CLSID_CDAOGroup           5f733bb0     daouuid:daouuid.obj
 0002:00006bc0       _CLSID_CDAOUser            5f733bc0     daouuid:daouuid.obj
 0002:00006bd0       _CLSID_CDAOQueryDef        5f733bd0     daouuid:daouuid.obj
 0002:00006be0       _CLSID_CDAORelation        5f733be0     daouuid:daouuid.obj
 0002:00006bf0       _IID_IDAODBEngine          5f733bf0     daouuid:daouuid.obj
 0002:00006c00       _IID_IDAODBEngineW         5f733c00     daouuid:daouuid.obj
 0002:00006c10       _IID_IDAOError             5f733c10     daouuid:daouuid.obj
 0002:00006c20       _IID_IDAOErrorW            5f733c20     daouuid:daouuid.obj
 0002:00006c30       _IID_IDAOErrors            5f733c30     daouuid:daouuid.obj
 0002:00006c40       _IID_IDAOErrorsW           5f733c40     daouuid:daouuid.obj
 0002:00006c50       _IID_IDAOProperty          5f733c50     daouuid:daouuid.obj
 0002:00006c60       _IID_IDAOPropertyW         5f733c60     daouuid:daouuid.obj
 0002:00006c70       _IID_IDAOProperties        5f733c70     daouuid:daouuid.obj
 0002:00006c80       _IID_IDAOPropertiesW       5f733c80     daouuid:daouuid.obj
 0002:00006c90       _IID_IDAORecordset         5f733c90     daouuid:daouuid.obj
 0002:00006ca0       _IID_IDAORecordsetW        5f733ca0     daouuid:daouuid.obj
 0002:00006cb0       _IID_IDAORecordsets        5f733cb0     daouuid:daouuid.obj
 0002:00006cc0       _IID_IDAORecordsetsW       5f733cc0     daouuid:daouuid.obj
 0002:00006cd0       _IID_ICDAORecordset        5f733cd0     daouuid:daouuid.obj
 0002:00006ce0       _IID_IDAOWorkspace         5f733ce0     daouuid:daouuid.obj
 0002:00006cf0       _IID_IDAOWorkspaceW        5f733cf0     daouuid:daouuid.obj
 0002:00006d00       _IID_IDAOWorkspaces        5f733d00     daouuid:daouuid.obj
 0002:00006d10       _IID_IDAOWorkspacesW       5f733d10     daouuid:daouuid.obj
 0002:00006d20       _IID_IDAOConnection        5f733d20     daouuid:daouuid.obj
 0002:00006d30       _IID_IDAOConnectionW       5f733d30     daouuid:daouuid.obj
 0002:00006d40       _IID_IDAOConnections       5f733d40     daouuid:daouuid.obj
 0002:00006d50       _IID_IDAOConnectionsW      5f733d50     daouuid:daouuid.obj
 0002:00006d60       _IID_IDAOTableDef          5f733d60     daouuid:daouuid.obj
 0002:00006d70       _IID_IDAOTableDefW         5f733d70     daouuid:daouuid.obj
 0002:00006d80       _IID_IDAOTableDefs         5f733d80     daouuid:daouuid.obj
 0002:00006d90       _IID_IDAOTableDefsW        5f733d90     daouuid:daouuid.obj
 0002:00006da0       _IID_IDAOField             5f733da0     daouuid:daouuid.obj
 0002:00006db0       _IID_IDAOFieldW            5f733db0     daouuid:daouuid.obj
 0002:00006dc0       _IID_IDAOFields            5f733dc0     daouuid:daouuid.obj
 0002:00006dd0       _IID_IDAOFieldsW           5f733dd0     daouuid:daouuid.obj
 0002:00006de0       _IID_IDAOIndex             5f733de0     daouuid:daouuid.obj
 0002:00006df0       _IID_IDAOIndexW            5f733df0     daouuid:daouuid.obj
 0002:00006e00       _IID_IDAOIndexes           5f733e00     daouuid:daouuid.obj
 0002:00006e10       _IID_IDAOIndexesW          5f733e10     daouuid:daouuid.obj
 0002:00006e20       _IID_IDAOIndexFields       5f733e20     daouuid:daouuid.obj
 0002:00006e30       _IID_IDAOIndexFieldsW      5f733e30     daouuid:daouuid.obj
 0002:00006e40       _IID_IDAOGroup             5f733e40     daouuid:daouuid.obj
 0002:00006e50       _IID_IDAOGroupW            5f733e50     daouuid:daouuid.obj
 0002:00006e60       _IID_IDAOGroups            5f733e60     daouuid:daouuid.obj
 0002:00006e70       _IID_IDAOGroupsW           5f733e70     daouuid:daouuid.obj
 0002:00006e80       _IID_IDAOUser              5f733e80     daouuid:daouuid.obj
 0002:00006e90       _IID_IDAOUserW             5f733e90     daouuid:daouuid.obj
 0002:00006ea0       _IID_IDAOUsers             5f733ea0     daouuid:daouuid.obj
 0002:00006eb0       _IID_IDAOUsersW            5f733eb0     daouuid:daouuid.obj
 0002:00006ec0       _IID_IDAODatabase          5f733ec0     daouuid:daouuid.obj
 0002:00006ed0       _IID_IDAODatabaseW         5f733ed0     daouuid:daouuid.obj
 0002:00006ee0       _IID_IDAODatabases         5f733ee0     daouuid:daouuid.obj
 0002:00006ef0       _IID_IDAODatabasesW        5f733ef0     daouuid:daouuid.obj
 0002:00006f00       _IID_IDAOQueryDef          5f733f00     daouuid:daouuid.obj
 0002:00006f10       _IID_IDAOQueryDefW         5f733f10     daouuid:daouuid.obj
 0002:00006f20       _IID_IDAOQueryDefs         5f733f20     daouuid:daouuid.obj
 0002:00006f30       _IID_IDAOQueryDefsW        5f733f30     daouuid:daouuid.obj
 0002:00006f40       _IID_IDAOParameter         5f733f40     daouuid:daouuid.obj
 0002:00006f50       _IID_IDAOParameterW        5f733f50     daouuid:daouuid.obj
 0002:00006f60       _IID_IDAOParameters        5f733f60     daouuid:daouuid.obj
 0002:00006f70       _IID_IDAOParametersW       5f733f70     daouuid:daouuid.obj
 0002:00006f80       _IID_IDAORelation          5f733f80     daouuid:daouuid.obj
 0002:00006f90       _IID_IDAORelationW         5f733f90     daouuid:daouuid.obj
 0002:00006fa0       _IID_IDAORelations         5f733fa0     daouuid:daouuid.obj
 0002:00006fb0       _IID_IDAORelationsW        5f733fb0     daouuid:daouuid.obj
 0002:00006fc0       _IID_IDAOContainer         5f733fc0     daouuid:daouuid.obj
 0002:00006fd0       _IID_IDAOContainerW        5f733fd0     daouuid:daouuid.obj
 0002:00006fe0       _IID_IDAOContainers        5f733fe0     daouuid:daouuid.obj
 0002:00006ff0       _IID_IDAOContainersW       5f733ff0     daouuid:daouuid.obj
 0002:00007000       _IID_IDAODocument          5f734000     daouuid:daouuid.obj
 0002:00007010       _IID_IDAODocumentW         5f734010     daouuid:daouuid.obj
 0002:00007020       _IID_IDAODocuments         5f734020     daouuid:daouuid.obj
 0002:00007030       _IID_IDAODocumentsW        5f734030     daouuid:daouuid.obj
 0002:00007040       _IID_IDAOCollection        5f734040     daouuid:daouuid.obj
 0002:00007050       _IID_IDAODynaCollection    5f734050     daouuid:daouuid.obj
 0002:00007060       _IID_IDAOQueryCP           5f734060     daouuid:daouuid.obj
 0002:00007070       _IID_IDAOQueryAS           5f734070     daouuid:daouuid.obj
 0002:00007080       _IID_ICDAOJETDBEngine      5f734080     daouuid:daouuid.obj
 0002:00007090       _IID_ICDAOJETError         5f734090     daouuid:daouuid.obj
 0002:000070a0       _IID_ICDAOJETRecordset     5f7340a0     daouuid:daouuid.obj
 0002:000070b0       _IID_ICDAOJETWorkspace     5f7340b0     daouuid:daouuid.obj
 0002:000070c0       _IID_ICDAOJETField         5f7340c0     daouuid:daouuid.obj
 0002:000070d0       _IID_ICDAOJETDatabase      5f7340d0     daouuid:daouuid.obj
 0002:000070e0       _IID_IDAOSnapshot          5f7340e0     daouuid:daouuid.obj
 0002:000070f0       _IID_IDAOTable             5f7340f0     daouuid:daouuid.obj
 0002:00007100       _IID_IDAODynaset           5f734100     daouuid:daouuid.obj
 0002:00007110       _IID_IDisconnect           5f734110     daouuid:daouuid.obj
 0002:00007120       _IID_IDisconnectAll        5f734120     daouuid:daouuid.obj
 0002:00007130       _IID_IDSCAdviseSink        5f734130     daouuid:daouuid.obj
 0002:00007140       _IID_IDSCConnectionPoint   5f734140     daouuid:daouuid.obj
 0002:00007150       _IID_IDBAdviseSink         5f734150     daouuid:daouuid.obj
 0002:00007160       _IID_IDBConnectionPoint    5f734160     daouuid:daouuid.obj
 0002:00007170       _LIBID30_CDAO              5f734170     daouuid:daouuid.obj
 0002:00007180       _LIBID30_CDAO25            5f734180     daouuid:daouuid.obj
 0002:00007190       _IID30_IDAOStdObject       5f734190     daouuid:daouuid.obj
 0002:000071a0       _IID30_IDAOStdCollection   5f7341a0     daouuid:daouuid.obj
 0002:000071b0       _CLSID30_CDAODBEngine      5f7341b0     daouuid:daouuid.obj
 0002:000071c0       _IID30_IDAODBEngine        5f7341c0     daouuid:daouuid.obj
 0002:000071d0       _IID30_IDAODBEngineW       5f7341d0     daouuid:daouuid.obj
 0002:000071e0       _IID30_ICDAOJETDBEngine    5f7341e0     daouuid:daouuid.obj
 0002:000071f0       _CLSID30_CDAOPrivDBEngine  5f7341f0     daouuid:daouuid.obj
 0002:00007200       _IID30_IDAOError           5f734200     daouuid:daouuid.obj
 0002:00007210       _IID30_IDAOErrorW          5f734210     daouuid:daouuid.obj
 0002:00007220       _IID30_IDAOErrors          5f734220     daouuid:daouuid.obj
 0002:00007230       _IID30_IDAOErrorsW         5f734230     daouuid:daouuid.obj
 0002:00007240       _IID30_ICDAOJETError       5f734240     daouuid:daouuid.obj
 0002:00007250       _IID30_IDAOProperty        5f734250     daouuid:daouuid.obj
 0002:00007260       _IID30_IDAOPropertyW       5f734260     daouuid:daouuid.obj
 0002:00007270       _IID30_IDAOProperties      5f734270     daouuid:daouuid.obj
 0002:00007280       _IID30_IDAOPropertiesW     5f734280     daouuid:daouuid.obj
 0002:00007290       _IID30_IDAORecordset       5f734290     daouuid:daouuid.obj
 0002:000072a0       _IID30_IDAORecordsetW      5f7342a0     daouuid:daouuid.obj
 0002:000072b0       _IID30_IDAORecordsets      5f7342b0     daouuid:daouuid.obj
 0002:000072c0       _IID30_IDAORecordsetsW     5f7342c0     daouuid:daouuid.obj
 0002:000072d0       _IID30_ICDAORecordset      5f7342d0     daouuid:daouuid.obj
 0002:000072e0       _IID30_ICDAOJETRecordset   5f7342e0     daouuid:daouuid.obj
 0002:000072f0       _IID30_IDAOSnapshot        5f7342f0     daouuid:daouuid.obj
 0002:00007300       _IID30_IDAOTable           5f734300     daouuid:daouuid.obj
 0002:00007310       _IID30_IDAODynaset         5f734310     daouuid:daouuid.obj
 0002:00007320       _IID30_IDAOWorkspace       5f734320     daouuid:daouuid.obj
 0002:00007330       _IID30_IDAOWorkspaceW      5f734330     daouuid:daouuid.obj
 0002:00007340       _IID30_IDAOWorkspaces      5f734340     daouuid:daouuid.obj
 0002:00007350       _IID30_IDAOWorkspacesW     5f734350     daouuid:daouuid.obj
 0002:00007360       _IID30_ICDAOJETWorkspace   5f734360     daouuid:daouuid.obj
 0002:00007370       _CLSID30_CDAOConnection    5f734370     daouuid:daouuid.obj
 0002:00007380       _IID30_IDAOConnection      5f734380     daouuid:daouuid.obj
 0002:00007390       _IID30_IDAOConnectionW     5f734390     daouuid:daouuid.obj
 0002:000073a0       _IID30_IDAOConnections     5f7343a0     daouuid:daouuid.obj
 0002:000073b0       _IID30_IDAOConnectionsW    5f7343b0     daouuid:daouuid.obj
 0002:000073c0       _CLSID30_CDAOTableDef      5f7343c0     daouuid:daouuid.obj
 0002:000073d0       _IID30_IDAOTableDef        5f7343d0     daouuid:daouuid.obj
 0002:000073e0       _IID30_IDAOTableDefW       5f7343e0     daouuid:daouuid.obj
 0002:000073f0       _IID30_IDAOTableDefs       5f7343f0     daouuid:daouuid.obj
 0002:00007400       _IID30_IDAOTableDefsW      5f734400     daouuid:daouuid.obj
 0002:00007410       _CLSID30_CDAOField         5f734410     daouuid:daouuid.obj
 0002:00007420       _IID30_IDAOField           5f734420     daouuid:daouuid.obj
 0002:00007430       _IID30_IDAOFieldW          5f734430     daouuid:daouuid.obj
 0002:00007440       _IID30_IDAOFields          5f734440     daouuid:daouuid.obj
 0002:00007450       _IID30_IDAOFieldsW         5f734450     daouuid:daouuid.obj
 0002:00007460       _IID30_ICDAOJETField       5f734460     daouuid:daouuid.obj
 0002:00007470       _CLSID30_CDAOIndex         5f734470     daouuid:daouuid.obj
 0002:00007480       _IID30_IDAOIndex           5f734480     daouuid:daouuid.obj
 0002:00007490       _IID30_IDAOIndexW          5f734490     daouuid:daouuid.obj
 0002:000074a0       _IID30_IDAOIndexes         5f7344a0     daouuid:daouuid.obj
 0002:000074b0       _IID30_IDAOIndexesW        5f7344b0     daouuid:daouuid.obj
 0002:000074c0       _IID30_IDAOIndexFields     5f7344c0     daouuid:daouuid.obj
 0002:000074d0       _IID30_IDAOIndexFieldsW    5f7344d0     daouuid:daouuid.obj
 0002:000074e0       _CLSID30_CDAOGroup         5f7344e0     daouuid:daouuid.obj
 0002:000074f0       _IID30_IDAOGroup           5f7344f0     daouuid:daouuid.obj
 0002:00007500       _IID30_IDAOGroupW          5f734500     daouuid:daouuid.obj
 0002:00007510       _IID30_IDAOGroups          5f734510     daouuid:daouuid.obj
 0002:00007520       _IID30_IDAOGroupsW         5f734520     daouuid:daouuid.obj
 0002:00007530       _CLSID30_CDAOUser          5f734530     daouuid:daouuid.obj
 0002:00007540       _IID30_IDAOUser            5f734540     daouuid:daouuid.obj
 0002:00007550       _IID30_IDAOUserW           5f734550     daouuid:daouuid.obj
 0002:00007560       _IID30_IDAOUsers           5f734560     daouuid:daouuid.obj
 0002:00007570       _IID30_IDAOUsersW          5f734570     daouuid:daouuid.obj
 0002:00007580       _IID30_IDAODatabase        5f734580     daouuid:daouuid.obj
 0002:00007590       _IID30_IDAODatabaseW       5f734590     daouuid:daouuid.obj
 0002:000075a0       _IID30_IDAODatabases       5f7345a0     daouuid:daouuid.obj
 0002:000075b0       _IID30_IDAODatabasesW      5f7345b0     daouuid:daouuid.obj
 0002:000075c0       _IID30_ICDAOJETDatabase    5f7345c0     daouuid:daouuid.obj
 0002:000075d0       _CLSID30_CDAOQueryDef      5f7345d0     daouuid:daouuid.obj
 0002:000075e0       _IID30_IDAOQueryDef        5f7345e0     daouuid:daouuid.obj
 0002:000075f0       _IID30_IDAOQueryDefW       5f7345f0     daouuid:daouuid.obj
 0002:00007600       _IID30_IDAOQueryDefs       5f734600     daouuid:daouuid.obj
 0002:00007610       _IID30_IDAOQueryDefsW      5f734610     daouuid:daouuid.obj
 0002:00007620       _IID30_IDAOParameter       5f734620     daouuid:daouuid.obj
 0002:00007630       _IID30_IDAOParameterW      5f734630     daouuid:daouuid.obj
 0002:00007640       _IID30_IDAOParameters      5f734640     daouuid:daouuid.obj
 0002:00007650       _IID30_IDAOParametersW     5f734650     daouuid:daouuid.obj
 0002:00007660       _CLSID30_CDAORelation      5f734660     daouuid:daouuid.obj
 0002:00007670       _IID30_IDAORelation        5f734670     daouuid:daouuid.obj
 0002:00007680       _IID30_IDAORelationW       5f734680     daouuid:daouuid.obj
 0002:00007690       _IID30_IDAORelations       5f734690     daouuid:daouuid.obj
 0002:000076a0       _IID30_IDAORelationsW      5f7346a0     daouuid:daouuid.obj
 0002:000076b0       _IID30_IDAOContainer       5f7346b0     daouuid:daouuid.obj
 0002:000076c0       _IID30_IDAOContainerW      5f7346c0     daouuid:daouuid.obj
 0002:000076d0       _IID30_IDAOContainers      5f7346d0     daouuid:daouuid.obj
 0002:000076e0       _IID30_IDAOContainersW     5f7346e0     daouuid:daouuid.obj
 0002:000076f0       _IID30_IDAODocument        5f7346f0     daouuid:daouuid.obj
 0002:00007700       _IID30_IDAODocumentW       5f734700     daouuid:daouuid.obj
 0002:00007710       _IID30_IDAODocuments       5f734710     daouuid:daouuid.obj
 0002:00007720       _IID30_IDAODocumentsW      5f734720     daouuid:daouuid.obj
 0002:00007730       _IID30_IDAOCollection      5f734730     daouuid:daouuid.obj
 0002:00007740       _IID30_IDAODynaCollection  5f734740     daouuid:daouuid.obj
 0002:00007750       _IID30_IDAOQueryCP         5f734750     daouuid:daouuid.obj
 0002:00007760       _IID30_IDAOQueryAS         5f734760     daouuid:daouuid.obj
 0002:00007770       _IID30_IDisconnect         5f734770     daouuid:daouuid.obj
 0002:00007780       _IID30_IDisconnectAll      5f734780     daouuid:daouuid.obj
 0002:00007790       _IID30_IDSCAdviseSink      5f734790     daouuid:daouuid.obj
 0002:000077a0       _IID30_IDSCConnectionPoint 5f7347a0     daouuid:daouuid.obj
 0002:000077b0       _IID30_IDBAdviseSink       5f7347b0     daouuid:daouuid.obj
 0002:000077c0       _IID30_IDBConnectionPoint  5f7347c0     daouuid:daouuid.obj
 0002:000077d0       ??_R1A@?0A@A@CNoTrackObject@@8 5f7347d0     dbcore.obj
 0002:000077e8       ??_R1A@?0A@A@_AFX_DB_STATE@@8 5f7347e8     dbcore.obj
 0002:00007800       ??_R2_AFX_DB_STATE@@8      5f734800     dbcore.obj
 0002:00007810       ??_R3_AFX_DB_STATE@@8      5f734810     dbcore.obj
 0002:00007820       ??_R4_AFX_DB_STATE@@6B@    5f734820     dbcore.obj
 0002:00007838       ??_R1A@?0A@A@CObject@@8    5f734838     dbcore.obj
 0002:00007850       ??_R1A@?0A@A@CException@@8 5f734850     dbcore.obj
 0002:00007868       ??_R1A@?0A@A@CDBException@@8 5f734868     dbcore.obj
 0002:00007880       ??_R2CDBException@@8       5f734880     dbcore.obj
 0002:00007890       ??_R3CDBException@@8       5f734890     dbcore.obj
 0002:000078a0       ??_R4CDBException@@6B@     5f7348a0     dbcore.obj
 0002:000078b4       ??_R2CNoTrackObject@@8     5f7348b4     dbcore.obj
 0002:000078c0       ??_R3CNoTrackObject@@8     5f7348c0     dbcore.obj
 0002:000078d0       ??_R4CNoTrackObject@@6B@   5f7348d0     dbcore.obj
 0002:000078e8       ??_R1A@?0A@A@CDatabase@@8  5f7348e8     dbcore.obj
 0002:00007900       ??_R2CDatabase@@8          5f734900     dbcore.obj
 0002:00007910       ??_R3CDatabase@@8          5f734910     dbcore.obj
 0002:00007920       ??_R4CDatabase@@6B@        5f734920     dbcore.obj
 0002:00007938       ??_R1A@?0A@A@CRecordset@@8 5f734938     dbcore.obj
 0002:00007950       ??_R2CRecordset@@8         5f734950     dbcore.obj
 0002:00007960       ??_R3CRecordset@@8         5f734960     dbcore.obj
 0002:00007970       ??_R4CRecordset@@6B@       5f734970     dbcore.obj
 0002:00007988       ??_R1A@?0A@A@CCmdTarget@@8 5f734988     dbview.obj
 0002:000079a0       ??_R1A@?0A@A@CWnd@@8       5f7349a0     dbview.obj
 0002:000079b8       ??_R1A@?0A@A@CView@@8      5f7349b8     dbview.obj
 0002:000079d0       ??_R1A@?0A@A@CScrollView@@8 5f7349d0     dbview.obj
 0002:000079e8       ??_R1A@?0A@A@CFormView@@8  5f7349e8     dbview.obj
 0002:00007a00       ??_R1A@?0A@A@CRecordView@@8 5f734a00     dbview.obj
 0002:00007a18       ??_R2CRecordView@@8        5f734a18     dbview.obj
 0002:00007a38       ??_R3CRecordView@@8        5f734a38     dbview.obj
 0002:00007a48       ??_R4CRecordView@@6B@      5f734a48     dbview.obj
 0002:00007a60       ??_R1A@?0A@A@CLongBinary@@8 5f734a60     dblong.obj
 0002:00007a78       ??_R2CLongBinary@@8        5f734a78     dblong.obj
 0002:00007a88       ??_R3CLongBinary@@8        5f734a88     dblong.obj
 0002:00007a98       ??_R4CLongBinary@@6B@      5f734a98     dblong.obj
 0002:00007ab0       ??_R1A@?0A@A@CDBVariant@@8 5f734ab0     dbvar.obj
 0002:00007ac8       ??_R2CDBVariant@@8         5f734ac8     dbvar.obj
 0002:00007ad0       ??_R3CDBVariant@@8         5f734ad0     dbvar.obj
 0002:00007ae0       ??_R4CDBVariant@@6B@       5f734ae0     dbvar.obj
 0002:00007af8       ??_R1A@?0A@A@_AFX_DAO_STATE@@8 5f734af8     daocore.obj
 0002:00007b10       ??_R2_AFX_DAO_STATE@@8     5f734b10     daocore.obj
 0002:00007b20       ??_R3_AFX_DAO_STATE@@8     5f734b20     daocore.obj
 0002:00007b30       ??_R4_AFX_DAO_STATE@@6B@   5f734b30     daocore.obj
 0002:00007b48       ??_R1A@?0A@A@CDaoIndexInfo@@8 5f734b48     daocore.obj
 0002:00007b60       ??_R2CDaoIndexInfo@@8      5f734b60     daocore.obj
 0002:00007b68       ??_R3CDaoIndexInfo@@8      5f734b68     daocore.obj
 0002:00007b78       ??_R4CDaoIndexInfo@@6B@    5f734b78     daocore.obj
 0002:00007b90       ??_R1A@?0A@A@CDaoRelationInfo@@8 5f734b90     daocore.obj
 0002:00007ba8       ??_R2CDaoRelationInfo@@8   5f734ba8     daocore.obj
 0002:00007bb0       ??_R3CDaoRelationInfo@@8   5f734bb0     daocore.obj
 0002:00007bc0       ??_R4CDaoRelationInfo@@6B@ 5f734bc0     daocore.obj
 0002:00007bd8       ??_R1A@?0A@A@CDaoException@@8 5f734bd8     daocore.obj
 0002:00007bf0       ??_R2CDaoException@@8      5f734bf0     daocore.obj
 0002:00007c00       ??_R3CDaoException@@8      5f734c00     daocore.obj
 0002:00007c10       ??_R4CDaoException@@6B@    5f734c10     daocore.obj
 0002:00007c28       ??_R1A@?0A@A@CDaoErrorInfo@@8 5f734c28     daocore.obj
 0002:00007c40       ??_R2CDaoErrorInfo@@8      5f734c40     daocore.obj
 0002:00007c48       ??_R3CDaoErrorInfo@@8      5f734c48     daocore.obj
 0002:00007c58       ??_R4CDaoErrorInfo@@6B@    5f734c58     daocore.obj
 0002:00007c70       ??_R1A@?0A@A@CDaoWorkspace@@8 5f734c70     daocore.obj
 0002:00007c88       ??_R2CDaoWorkspace@@8      5f734c88     daocore.obj
 0002:00007c98       ??_R3CDaoWorkspace@@8      5f734c98     daocore.obj
 0002:00007ca8       ??_R4CDaoWorkspace@@6B@    5f734ca8     daocore.obj
 0002:00007cc0       ??_R1A@?0A@A@CDaoDatabase@@8 5f734cc0     daocore.obj
 0002:00007cd8       ??_R2CDaoDatabase@@8       5f734cd8     daocore.obj
 0002:00007ce8       ??_R3CDaoDatabase@@8       5f734ce8     daocore.obj
 0002:00007cf8       ??_R4CDaoDatabase@@6B@     5f734cf8     daocore.obj
 0002:00007d10       ??_R1A@?0A@A@CDaoRelationFieldInfo@@8 5f734d10     daocore.obj
 0002:00007d28       ??_R2CDaoRelationFieldInfo@@8 5f734d28     daocore.obj
 0002:00007d30       ??_R3CDaoRelationFieldInfo@@8 5f734d30     daocore.obj
 0002:00007d40       ??_R4CDaoRelationFieldInfo@@6B@ 5f734d40     daocore.obj
 0002:00007d58       ??_R1A@?0A@A@CDaoTableDef@@8 5f734d58     daocore.obj
 0002:00007d70       ??_R2CDaoTableDef@@8       5f734d70     daocore.obj
 0002:00007d80       ??_R3CDaoTableDef@@8       5f734d80     daocore.obj
 0002:00007d90       ??_R4CDaoTableDef@@6B@     5f734d90     daocore.obj
 0002:00007da8       ??_R1A@?0A@A@CDaoFieldInfo@@8 5f734da8     daocore.obj
 0002:00007dc0       ??_R2CDaoFieldInfo@@8      5f734dc0     daocore.obj
 0002:00007dc8       ??_R3CDaoFieldInfo@@8      5f734dc8     daocore.obj
 0002:00007dd8       ??_R4CDaoFieldInfo@@6B@    5f734dd8     daocore.obj
 0002:00007df0       ??_R1A@?0A@A@CDaoQueryDef@@8 5f734df0     daocore.obj
 0002:00007e08       ??_R2CDaoQueryDef@@8       5f734e08     daocore.obj
 0002:00007e18       ??_R3CDaoQueryDef@@8       5f734e18     daocore.obj
 0002:00007e28       ??_R4CDaoQueryDef@@6B@     5f734e28     daocore.obj
 0002:00007e40       ??_R1A@?0A@A@CDaoRecordset@@8 5f734e40     daocore.obj
 0002:00007e58       ??_R2CDaoRecordset@@8      5f734e58     daocore.obj
 0002:00007e68       ??_R3CDaoRecordset@@8      5f734e68     daocore.obj
 0002:00007e78       ??_R4CDaoRecordset@@6B@    5f734e78     daocore.obj
 0002:00007e90       ??_R1A@?0A@A@CDaoIndexFieldInfo@@8 5f734e90     daocore.obj
 0002:00007ea8       ??_R2CDaoIndexFieldInfo@@8 5f734ea8     daocore.obj
 0002:00007eb0       ??_R3CDaoIndexFieldInfo@@8 5f734eb0     daocore.obj
 0002:00007ec0       ??_R4CDaoIndexFieldInfo@@6B@ 5f734ec0     daocore.obj
 0002:00007ed8       ??_R1A@?0A@A@CDaoRecordView@@8 5f734ed8     daoview.obj
 0002:00007ef0       ??_R2CDaoRecordView@@8     5f734ef0     daoview.obj
 0002:00007f10       ??_R3CDaoRecordView@@8     5f734f10     daoview.obj
 0002:00007f20       ??_R4CDaoRecordView@@6B@   5f734f20     daoview.obj
 0002:00007f38       ??_R1A@?0A@A@type_info@@8  5f734f38     msvcrtd:ti_inst.obj
 0002:00007f50       ??_R2type_info@@8          5f734f50     msvcrtd:ti_inst.obj
 0002:00007f58       ??_R3type_info@@8          5f734f58     msvcrtd:ti_inst.obj
 0002:00007f68       ??_R4type_info@@6B@        5f734f68     msvcrtd:ti_inst.obj
 0002:00008940       __CT??_R0PAX@84            5f735940     dbcore.obj
 0002:00008960       __CT??_R0PAVCObject@@@84   5f735960     dbcore.obj
 0002:00008980       __CT??_R0PAVCException@@@84 5f735980     dbcore.obj
 0002:000089a0       __CT??_R0PAVCDBException@@@84 5f7359a0     dbcore.obj
 0002:000089c0       __CTA4PAVCDBException@@    5f7359c0     dbcore.obj
 0002:000089d8       __TI4PAVCDBException@@     5f7359d8     dbcore.obj
 0002:0000ab38       __CT??_R0PAVCDaoException@@@84 5f737b38     daocore.obj
 0002:0000ab58       __CTA4PAVCDaoException@@   5f737b58     daocore.obj
 0002:0000ab70       __TI4PAVCDaoException@@    5f737b70     daocore.obj
 0002:0000af38       __IMPORT_DESCRIPTOR_MFC42D 5f737f38     MFC42D:MFC42D.DLL
 0002:0000af4c       __IMPORT_DESCRIPTOR_MFCO42D 5f737f4c     MFCO42D:MFCO42D.DLL
 0002:0000af60       __IMPORT_DESCRIPTOR_MSVCRTD 5f737f60     msvcrtd:MSVCRTD.dll
 0002:0000af74       __IMPORT_DESCRIPTOR_KERNEL32 5f737f74     kernel32:KERNEL32.dll
 0002:0000af88       __IMPORT_DESCRIPTOR_USER32 5f737f88     user32:USER32.dll
 0002:0000af9c       __NULL_IMPORT_DESCRIPTOR   5f737f9c     MFC42D:MFC42D.DLL
 0003:00000000       ___xc_a                    5f73a000     msvcrtd:cinitexe.obj
 0003:00000010       ___xc_z                    5f73a010     msvcrtd:cinitexe.obj
 0003:00000014       ___xi_a                    5f73a014     msvcrtd:cinitexe.obj
 0003:00000018       ___xi_z                    5f73a018     msvcrtd:cinitexe.obj
 0003:0000002c       __pRawDllMain              5f73a02c     dlldb.obj
 0003:00000030       ?_afxForceVectorDelete_mfcd@@3P6AXXZA 5f73a030     dlldb.obj
 0003:00000048       ?_afxODBC@@3UAFX_ODBC_CALL@@A 5f73a048     dbcore.obj
 0003:000000e0       ??_R0PAVCException@@@8     5f73a0e0     dbcore.obj
 0003:00000100       ??_R0?AVCNoTrackObject@@@8 5f73a100     dbcore.obj
 0003:00000120       ??_R0?AV_AFX_DB_STATE@@@8  5f73a120     dbcore.obj
 0003:00000140       ??_R0PAX@8                 5f73a140     dbcore.obj
 0003:00000150       ??_R0PAVCObject@@@8        5f73a150     dbcore.obj
 0003:00000168       ??_R0PAVCDBException@@@8   5f73a168     dbcore.obj
 0003:00000188       ??_R0?AVCObject@@@8        5f73a188     dbcore.obj
 0003:000001a0       ??_R0?AVCException@@@8     5f73a1a0     dbcore.obj
 0003:000001c0       ??_R0?AVCDBException@@@8   5f73a1c0     dbcore.obj
 0003:000001e0       ??_R0?AVCDatabase@@@8      5f73a1e0     dbcore.obj
 0003:000001f8       ??_R0?AVCRecordset@@@8     5f73a1f8     dbcore.obj
 0003:00000258       ??_R0?AVCCmdTarget@@@8     5f73a258     dbview.obj
 0003:00000278       ??_R0?AVCWnd@@@8           5f73a278     dbview.obj
 0003:00000290       ??_R0?AVCView@@@8          5f73a290     dbview.obj
 0003:000002a8       ??_R0?AVCScrollView@@@8    5f73a2a8     dbview.obj
 0003:000002c8       ??_R0?AVCFormView@@@8      5f73a2c8     dbview.obj
 0003:000002e0       ??_R0?AVCRecordView@@@8    5f73a2e0     dbview.obj
 0003:00000320       ??_R0?AVCLongBinary@@@8    5f73a320     dblong.obj
 0003:00000350       ??_R0?AVCDBVariant@@@8     5f73a350     dbvar.obj
 0003:00000390       ??_R0?AV_AFX_DAO_STATE@@@8 5f73a390     daocore.obj
 0003:000003b0       ??_R0?AUCDaoIndexInfo@@@8  5f73a3b0     daocore.obj
 0003:000003d0       ??_R0?AUCDaoRelationInfo@@@8 5f73a3d0     daocore.obj
 0003:000003f0       ??_R0?AVCDaoException@@@8  5f73a3f0     daocore.obj
 0003:00000410       ??_R0?AUCDaoErrorInfo@@@8  5f73a410     daocore.obj
 0003:00000430       ??_R0PAVCDaoException@@@8  5f73a430     daocore.obj
 0003:00000450       ??_R0?AVCDaoWorkspace@@@8  5f73a450     daocore.obj
 0003:00000470       ??_R0?AVCDaoDatabase@@@8   5f73a470     daocore.obj
 0003:00000490       ??_R0?AUCDaoRelationFieldInfo@@@8 5f73a490     daocore.obj
 0003:000004b8       ??_R0?AVCDaoTableDef@@@8   5f73a4b8     daocore.obj
 0003:000004d8       ??_R0?AUCDaoFieldInfo@@@8  5f73a4d8     daocore.obj
 0003:000004f8       ??_R0?AVCDaoQueryDef@@@8   5f73a4f8     daocore.obj
 0003:00000518       ??_R0?AVCDaoRecordset@@@8  5f73a518     daocore.obj
 0003:00000538       ??_R0?AUCDaoIndexFieldInfo@@@8 5f73a538     daocore.obj
 0003:000005a0       ??_R0?AVCDaoRecordView@@@8 5f73a5a0     daoview.obj
 0003:000005c0       ??_R0?AVtype_info@@@8      5f73a5c0     msvcrtd:ti_inst.obj
 0003:000005ec       ?_afxDbState@@3V?$CProcessLocal@V_AFX_DB_STATE@@@@A 5f73a5ec     dbcore.obj
 0003:000005f0       ?bTraceSql@@3HA            5f73a5f0     dbcore.obj
 0003:00000628       __adjust_fdiv              5f73a628     <common>
 0003:0000062c       ___onexitend               5f73a62c     <common>
 0003:00000630       ___onexitbegin             5f73a630     <common>

 entry point at        0001:00028ec0

 Static symbols

 0001:00011781       _$E352                     5f712781 f   daocore.obj
 0001:0001178b       _$E351                     5f71278b f   daocore.obj
 0001:0001179a       _$E355                     5f71279a f   daocore.obj
 0001:000117a4       _$E354                     5f7127a4 f   daocore.obj
 0001:00000034       ?AfxOdbcLoad@@YGXPAP6GHXZPBD@Z 5f701034 f   dbcore.obj
 0001:0002929e       _$E355                     5f72a29e f   dbcore.obj
 0001:000292ad       _$E352                     5f72a2ad f   dbcore.obj
 0001:000292b2       _$E354                     5f72a2b2 f   dbcore.obj
 0001:000292c4       _$E353                     5f72a2c4 f   dbcore.obj
 0001:00029460       ?_AfxForceVectorDelete@@YAXXZ 5f72a460 f   dlldb.obj
 0001:00028cb0       ?ArrayUnwindFilter@@YAHPAU_EXCEPTION_POINTERS@@@Z 5f729cb0 f   msvcrtd:ehvecdtr.obj

 46 bytes saved through ICF

